   1               		.file	"Timers.c"
   2               		.arch atmega32
   3               	__SREG__ = 0x3f
   4               	__SP_H__ = 0x3e
   5               	__SP_L__ = 0x3d
   6               	__tmp_reg__ = 0
   7               	__zero_reg__ = 1
   8               		.global __do_copy_data
   9               		.global __do_clear_bss
  10               	.global	task2Tcb
  11               		.section	.progmem.data,"a",@progbits
  14               	task2Tcb:
  15 0000 0000      		.word	task2Stk+42
  16 0002 0000      		.word	pm(task2)
  17 0004 0000      		.word	task2Pid
  18 0006 02        		.byte	2
  19               	.global	task1Tcb
  22               	task1Tcb:
  23 0007 0000      		.word	task1Stk+42
  24 0009 0000      		.word	pm(task1)
  25 000b 0000      		.word	task1Pid
  26 000d 03        		.byte	3
  27               	.global	MonitorTcb
  30               	MonitorTcb:
  31 000e 0000      		.word	MonitorStk+54
  32 0010 0000      		.word	pm(Monitor)
  33 0012 0000      		.word	MonitorPid
  34 0014 00        		.byte	0
  35               		.text
  36               	.global	__vector_11
  38               	__vector_11:
  39               	/* prologue: frame size=0 */
  40               	/* prologue: naked */
  41               	/* prologue end (size=0) */
  42 0000 0E94 0000 		call IntProlog
  43 0004 80EE      		ldi r24,lo8(-32)
  44 0006 82BF      		out 82-0x20,r24
  45 0008 0E94 0000 		call AvrXTimerHandler
  46 000c 0E94 0000 		call Epilog
  47               	/* epilogue: frame size=0 */
  48               	/* epilogue: naked */
  49               	/* epilogue end (size=0) */
  50               	/* function __vector_11 size 8 (8) */
  52               	.global	task1
  54               	task1:
  55               	/* prologue: frame size=0 */
  56               	/* prologue end (size=0) */
  57 0010 C1E0      		ldi r28,lo8(1)
  58               	.L3:
  59 0012 60E2      		ldi r22,lo8(800)
  60 0014 73E0      		ldi r23,hi8(800)
  61 0016 80E0      		ldi r24,lo8(timer1)
  62 0018 90E0      		ldi r25,hi8(timer1)
  63 001a 0E94 0000 		call AvrXStartTimer
  64 001e 80E0      		ldi r24,lo8(timer1)
  65 0020 90E0      		ldi r25,hi8(timer1)
  66 0022 0E94 0000 		call AvrXWaitTimer
  67 0026 88B3      		in r24,56-0x20
  68 0028 8C27      		eor r24,r28
  69 002a 88BB      		out 56-0x20,r24
  70 002c 68EC      		ldi r22,lo8(200)
  71 002e 70E0      		ldi r23,hi8(200)
  72 0030 80E0      		ldi r24,lo8(timer1)
  73 0032 90E0      		ldi r25,hi8(timer1)
  74 0034 0E94 0000 		call AvrXStartTimer
  75 0038 80E0      		ldi r24,lo8(timer1)
  76 003a 90E0      		ldi r25,hi8(timer1)
  77 003c 0E94 0000 		call AvrXWaitTimer
  78 0040 88B3      		in r24,56-0x20
  79 0042 8C27      		eor r24,r28
  80 0044 88BB      		out 56-0x20,r24
  81 0046 E5CF      		rjmp .L3
  82               	/* epilogue: frame size=0 */
  83               	/* epilogue: noreturn */
  84               	/* epilogue end (size=0) */
  85               	/* function task1 size 28 (28) */
  87               	.global	task2
  89               	task2:
  90               	/* prologue: frame size=0 */
  91               	/* prologue end (size=0) */
  92 0048 C2E0      		ldi r28,lo8(2)
  93               	.L7:
  94 004a 60ED      		ldi r22,lo8(2000)
  95 004c 77E0      		ldi r23,hi8(2000)
  96 004e 80E0      		ldi r24,lo8(timer2)
  97 0050 90E0      		ldi r25,hi8(timer2)
  98 0052 0E94 0000 		call AvrXDelay
  99 0056 88B3      		in r24,56-0x20
 100 0058 8C27      		eor r24,r28
 101 005a 88BB      		out 56-0x20,r24
 102 005c F6CF      		rjmp .L7
 103               	/* epilogue: frame size=0 */
 104               	/* epilogue: noreturn */
 105               	/* epilogue end (size=0) */
 106               	/* function task2 size 11 (11) */
 108               	.global	main
 110               	main:
 111               	/* prologue: frame size=0 */
 112 005e C0E0      		ldi r28,lo8(__stack - 0)
 113 0060 D0E0      		ldi r29,hi8(__stack - 0)
 114 0062 DEBF      		out __SP_H__,r29
 115 0064 CDBF      		out __SP_L__,r28
 116               	/* prologue end (size=4) */
 117 0066 80E0      		ldi r24,lo8(0)
 118 0068 90E0      		ldi r25,hi8(0)
 119 006a 0E94 0000 		call AvrXSetKernelStack
 120 006e 80E8      		ldi r24,lo8(-128)
 121 0070 85BF      		out 85-0x20,r24
 122 0072 80EE      		ldi r24,lo8(-32)
 123 0074 82BF      		out 82-0x20,r24
 124 0076 84E0      		ldi r24,lo8(4)
 125 0078 83BF      		out 83-0x20,r24
 126 007a 81E0      		ldi r24,lo8(1)
 127 007c 89BF      		out 89-0x20,r24
 128 007e 8FEF      		ldi r24,lo8(-1)
 129 0080 87BB      		out 55-0x20,r24
 130 0082 88BB      		out 56-0x20,r24
 131 0084 80E0      		ldi r24,lo8(task1Tcb)
 132 0086 90E0      		ldi r25,hi8(task1Tcb)
 133 0088 0E94 0000 		call AvrXRunTask
 134 008c 80E0      		ldi r24,lo8(task2Tcb)
 135 008e 90E0      		ldi r25,hi8(task2Tcb)
 136 0090 0E94 0000 		call AvrXRunTask
 137 0094 80E0      		ldi r24,lo8(MonitorTcb)
 138 0096 90E0      		ldi r25,hi8(MonitorTcb)
 139 0098 0E94 0000 		call AvrXRunTask
 140 009c 89E1      		ldi r24,lo8(25)
 141 009e 90E0      		ldi r25,hi8(25)
 142 00a0 0E94 0000 		call InitSerialIO
 143 00a4 0E94 0000 		call Epilog
 144               	.L10:
 145 00a8 FFCF      		rjmp .L10
 146               	/* epilogue: frame size=0 */
 147               	/* epilogue: noreturn */
 148               	/* epilogue end (size=0) */
 149               	/* function main size 38 (34) */
 151               		.comm MonitorStk,55,1
 152               		.comm MonitorPid,6,1
 153               		.comm timer1,6,1
 154               		.comm timer2,6,1
 155               		.comm task1Stk,43,1
 156               		.comm task1Pid,6,1
 157               		.comm task2Stk,43,1
 158               		.comm task2Pid,6,1
 159               	/* File "Timers.c": code   85 = 0x0055 (  81), prologues   4, epilogues   0 */
DEFINED SYMBOLS
                            *ABS*:00000000 Timers.c
                            *ABS*:0000003f __SREG__
                            *ABS*:0000003e __SP_H__
                            *ABS*:0000003d __SP_L__
                            *ABS*:00000000 __tmp_reg__
                            *ABS*:00000001 __zero_reg__
/var/tmp//cc0EmtVW.s:14     .progmem.data:00000000 task2Tcb
                            *COM*:0000002b task2Stk
/var/tmp//cc0EmtVW.s:89     .text:00000048 task2
                            *COM*:00000006 task2Pid
/var/tmp//cc0EmtVW.s:22     .progmem.data:00000007 task1Tcb
                            *COM*:0000002b task1Stk
/var/tmp//cc0EmtVW.s:54     .text:00000010 task1
                            *COM*:00000006 task1Pid
/var/tmp//cc0EmtVW.s:30     .progmem.data:0000000e MonitorTcb
                            *COM*:00000037 MonitorStk
                            *COM*:00000006 MonitorPid
/var/tmp//cc0EmtVW.s:38     .text:00000000 __vector_11
                            *COM*:00000006 timer1
                            *COM*:00000006 timer2
/var/tmp//cc0EmtVW.s:110    .text:0000005e main

UNDEFINED SYMBOLS
__do_copy_data
__do_clear_bss
Monitor
IntProlog
AvrXTimerHandler
Epilog
AvrXStartTimer
AvrXWaitTimer
AvrXDelay
__stack
AvrXSetKernelStack
AvrXRunTask
InitSerialIO
