Archive member included because of file (symbol)

/opt/local/lib/gcc/avr/4.0.2/avr5/libgcc.a(_mulsi3.o)
                              /opt/local/avr/sixcode//timer.o (__mulsi3)
/opt/local/lib/gcc/avr/4.0.2/avr5/libgcc.a(_udivmodhi4.o)
                              /opt/local/avr/sixcode//buffer.o (__udivmodhi4)
/opt/local/lib/gcc/avr/4.0.2/avr5/libgcc.a(_divmodhi4.o)
                              /opt/local/avr/sixcode//i2c.o (__divmodhi4)
/opt/local/lib/gcc/avr/4.0.2/avr5/libgcc.a(_udivmodsi4.o)
                              /opt/local/avr/sixcode//uart.o (__udivmodsi4)
/opt/local/lib/gcc/avr/4.0.2/avr5/libgcc.a(_divmodsi4.o)
                              /opt/local/avr/sixcode//timer.o (__divmodsi4)
/opt/local/lib/gcc/avr/4.0.2/avr5/libgcc.a(_exit.o)
                              cmdlinetest.o (exit)
/opt/local/lib/gcc/avr/4.0.2/avr5/libgcc.a(_copy_data.o)
                              /opt/local/avr/sixcode//buffer.o (__do_copy_data)
/opt/local/lib/gcc/avr/4.0.2/avr5/libgcc.a(_clear_bss.o)
                              /opt/local/avr/sixcode//buffer.o (__do_clear_bss)
/opt/local/lib/gcc/avr/4.0.2/../../../../avr/lib/avr5/libc.a(strtol.o)
                              /opt/local/avr/sixcode//cmdline.o (strtol)
/opt/local/lib/gcc/avr/4.0.2/../../../../avr/lib/avr5/libc.a(isspace.o)
                              /opt/local/lib/gcc/avr/4.0.2/../../../../avr/lib/avr5/libc.a(strtol.o) (isspace)
/opt/local/lib/gcc/avr/4.0.2/../../../../avr/lib/avr5/libc.a(strcpy.o)
                              /opt/local/avr/sixcode//cmdline.o (strcpy)
/opt/local/lib/gcc/avr/4.0.2/../../../../avr/lib/avr5/libc.a(strncmp.o)
                              /opt/local/avr/sixcode//cmdline.o (strncmp)
/opt/local/lib/gcc/avr/4.0.2/../../../../avr/lib/avr5/libc.a(errno.o)
                              /opt/local/lib/gcc/avr/4.0.2/../../../../avr/lib/avr5/libc.a(strtol.o) (errno)
/opt/local/lib/gcc/avr/4.0.2/../../../../avr/lib/avr5/libc.a(cty_isfalse.o)
                              /opt/local/lib/gcc/avr/4.0.2/../../../../avr/lib/avr5/libc.a(isspace.o) (__ctype_isfalse)

Allocating common symbols
Common symbol       size              file

uartReadyTx         0x1               /opt/local/avr/sixcode//uart.o
ServoChannel        0x1               /opt/local/avr/sixcode//servo.o
ServoChannels       0x14              /opt/local/avr/sixcode//servo.o
camPanServoPos      0x1               cmdlinetest.o
Run                 0x1               cmdlinetest.o
CmdlineBufferLength
                    0x1               /opt/local/avr/sixcode//cmdline.o
errno               0x2               /opt/local/lib/gcc/avr/4.0.2/../../../../avr/lib/avr5/libc.a(errno.o)
camTiltServoPos     0x1               cmdlinetest.o
rightServoPos       0x1               cmdlinetest.o
CmdlineExecFunction
                    0x2               /opt/local/avr/sixcode//cmdline.o
ServoPosTics        0x2               /opt/local/avr/sixcode//servo.o
Timer0Reg0          0x4               /opt/local/avr/sixcode//timer.o
uartRxBuffer        0x8               /opt/local/avr/sixcode//uart.o
TimerPauseReg       0x4               /opt/local/avr/sixcode//timer.o
CmdlineNumCommands  0x1               /opt/local/avr/sixcode//cmdline.o
Timer2Reg0          0x4               /opt/local/avr/sixcode//timer.o
ServoPeriodTics     0x2               /opt/local/avr/sixcode//servo.o
CmdlineInputVT100State
                    0x1               /opt/local/avr/sixcode//cmdline.o
throttleServoPos    0x1               cmdlinetest.o
CmdlineBufferEditPos
                    0x1               /opt/local/avr/sixcode//cmdline.o
uartBufferedTx      0x1               /opt/local/avr/sixcode//uart.o
a2dCompleteFlag     0x1               /opt/local/avr/sixcode//a2d.o
CmdlineBuffer       0x50              /opt/local/avr/sixcode//cmdline.o
CmdlineHistory      0x50              /opt/local/avr/sixcode//cmdline.o
uartTxBuffer        0x8               /opt/local/avr/sixcode//uart.o
uartRxOverflow      0x2               /opt/local/avr/sixcode//uart.o

Memory Configuration

Name             Origin             Length             Attributes
text             0x00000000         0x00020000         xr
data             0x00800060         0x0000ffa0         rw !x
eeprom           0x00810000         0x00010000         rw !x
*default*        0x00000000         0xffffffff

Linker script and memory map

LOAD /opt/local/lib/gcc/avr/4.0.2/../../../../avr/lib/avr5/crtm32.o
LOAD /opt/local/avr/sixcode//buffer.o
LOAD /opt/local/avr/sixcode//uart.o
LOAD /opt/local/avr/sixcode//rprintf.o
LOAD /opt/local/avr/sixcode//timer.o
LOAD /opt/local/avr/sixcode//a2d.o
LOAD /opt/local/avr/sixcode//vt100.o
LOAD /opt/local/avr/sixcode//servo.o
LOAD /opt/local/avr/sixcode//i2c.o
LOAD /opt/local/avr/sixcode//cmdline.o
LOAD cmdlinetest.o
LOAD /opt/local/lib/gcc/avr/4.0.2/avr5/libgcc.a
LOAD /opt/local/lib/gcc/avr/4.0.2/../../../../avr/lib/avr5/libc.a
LOAD /opt/local/lib/gcc/avr/4.0.2/avr5/libgcc.a

.hash
 *(.hash)

.dynsym
 *(.dynsym)

.dynstr
 *(.dynstr)

.gnu.version
 *(.gnu.version)

.gnu.version_d
 *(.gnu.version_d)

.gnu.version_r
 *(.gnu.version_r)

.rel.init
 *(.rel.init)

.rela.init
 *(.rela.init)

.rel.text
 *(.rel.text)
 *(.rel.text.*)
 *(.rel.gnu.linkonce.t*)

.rela.text
 *(.rela.text)
 *(.rela.text.*)
 *(.rela.gnu.linkonce.t*)

.rel.fini
 *(.rel.fini)

.rela.fini
 *(.rela.fini)

.rel.rodata
 *(.rel.rodata)
 *(.rel.rodata.*)
 *(.rel.gnu.linkonce.r*)

.rela.rodata
 *(.rela.rodata)
 *(.rela.rodata.*)
 *(.rela.gnu.linkonce.r*)

.rel.data
 *(.rel.data)
 *(.rel.data.*)
 *(.rel.gnu.linkonce.d*)

.rela.data
 *(.rela.data)
 *(.rela.data.*)
 *(.rela.gnu.linkonce.d*)

.rel.ctors
 *(.rel.ctors)

.rela.ctors
 *(.rela.ctors)

.rel.dtors
 *(.rel.dtors)

.rela.dtors
 *(.rela.dtors)

.rel.got
 *(.rel.got)

.rela.got
 *(.rela.got)

.rel.bss
 *(.rel.bss)

.rela.bss
 *(.rela.bss)

.rel.plt
 *(.rel.plt)

.rela.plt
 *(.rela.plt)

.text           0x00000000     0x29a4
 *(.vectors)
 .vectors       0x00000000       0x54 /opt/local/lib/gcc/avr/4.0.2/../../../../avr/lib/avr5/crtm32.o
                0x00000000                __vectors
                0x00000000                __vector_default
                0x00000054                __ctors_start = .
 *(.ctors)
                0x00000054                __ctors_end = .
                0x00000054                __dtors_start = .
 *(.dtors)
                0x00000054                __dtors_end = .
 *(.progmem.gcc*)
 *(.progmem*)
 .progmem.data  0x00000054       0x11 /opt/local/avr/sixcode//rprintf.o
 .progmem.data  0x00000065       0x1c /opt/local/avr/sixcode//timer.o
                0x00000065                TimerRTCPrescaleFactor
                0x00000075                TimerPrescaleFactor
 .progmem.data  0x00000081       0x25 /opt/local/avr/sixcode//vt100.o
 .progmem.data  0x000000a6        0x8 /opt/local/avr/sixcode//cmdline.o
                0x000000a6                CmdlineCmdNotFound
                0x000000ac                CmdlineNotice
                0x000000ad                CmdlinePrompt
 .progmem.data  0x000000ae      0x23d cmdlinetest.o
                0x000002ec                . = ALIGN (0x2)
 *fill*         0x000002eb        0x1 00
 *(.init0)
 *(.init1)
 *(.init2)
 .init2         0x000002ec        0xc /opt/local/lib/gcc/avr/4.0.2/../../../../avr/lib/avr5/crtm32.o
 *(.init3)
 *(.init4)
 .init4         0x000002f8       0x16 /opt/local/lib/gcc/avr/4.0.2/avr5/libgcc.a(_copy_data.o)
                0x000002f8                __do_copy_data
 .init4         0x0000030e       0x10 /opt/local/lib/gcc/avr/4.0.2/avr5/libgcc.a(_clear_bss.o)
                0x0000030e                __do_clear_bss
 *(.init5)
 *(.init6)
 *(.init7)
 *(.init8)
 *(.init9)
 .init9         0x0000031e        0x4 /opt/local/lib/gcc/avr/4.0.2/../../../../avr/lib/avr5/crtm32.o
 *(.text)
 .text          0x00000322        0x4 /opt/local/lib/gcc/avr/4.0.2/../../../../avr/lib/avr5/crtm32.o
                0x00000322                __vector_1
                0x00000322                __vector_12
                0x00000322                __bad_interrupt
                0x00000322                __vector_3
                0x00000322                __vector_17
                0x00000322                __vector_2
                0x00000322                __vector_14
                0x00000322                __vector_18
                0x00000322                __vector_20
 .text          0x00000326      0x15a /opt/local/avr/sixcode//buffer.o
                0x0000045c                bufferIsNotFull
                0x00000340                bufferGetFromFront
                0x000003e0                bufferGetAtIndex
                0x0000039c                bufferDumpFromFront
                0x00000326                bufferInit
                0x0000040a                bufferAddToEnd
                0x00000472                bufferFlush
 .text          0x00000480      0x260 /opt/local/avr/sixcode//uart.o
                0x000006c0                uartSendTxBuffer
                0x0000051e                uartSendByte
                0x000004b4                uartInitBuffers
                0x00000530                uartReceiveByte
                0x000005c6                uartAddToTxBuffer
                0x00000508                uartSetRxHandler
                0x00000642                __vector_13
                0x000005a4                uartFlushReceiveBuffer
                0x000004d6                uartInit
                0x000005ae                uartReceiveBufferIsEmpty
                0x00000480                uartSetBaudRate
                0x00000518                uartGetTxBuffer
                0x00000568                uartGetByte
                0x00000512                uartGetRxBuffer
                0x000005d4                __vector_15
 .text          0x000006e0      0x3e8 /opt/local/avr/sixcode//rprintf.o
                0x0000098c                rprintf1RamRom
                0x000007c0                rprintfu08
                0x000007f0                rprintfu32
                0x0000070e                rprintfStr
                0x0000072c                rprintfStrLen
                0x00000782                rprintfProgStr
                0x000007d6                rprintfu16
                0x000006e0                rprintfInit
                0x000006ea                rprintfChar
                0x000007a2                rprintfCRLF
                0x000007aa                rprintfu04
                0x00000816                rprintfNum
 .text          0x00000ac8      0x67c /opt/local/avr/sixcode//timer.o
                0x00000cb2                timer2GetOverflowCount
                0x00000af6                timerDetach
                0x00000b28                timer1SetPrescaler
                0x00000d28                timer1PWMBOff
                0x00000b7a                timer2GetPrescaler
                0x00000fec                __vector_6
                0x000010a0                timer0Init
                0x00000d1a                timer1PWMAOff
                0x00000d58                timer1PWMBSet
                0x00000d5e                __vector_11
                0x00000cf4                timer1PWMInitICR
                0x00000b4e                timer0GetPrescaler
                0x00000f38                __vector_7
                0x00000ca0                timer0GetOverflowCount
                0x00000e5e                __vector_5
                0x000010f8                timerInit
                0x00000b32                timer2SetPrescaler
                0x00000d36                timer1PWMAOn
                0x00000b0c                timer0SetPrescaler
                0x00000ac8                delay_us
                0x00001046                __vector_4
                0x00000b16                timer0ClearOverflowCount
                0x00000e04                __vector_9
                0x000010c2                timer1Init
                0x00000cc4                timer1PWMInit
                0x00000d44                timer1PWMBOn
                0x000010d6                timer2Init
                0x00000f92                __vector_8
                0x00000d52                timer1PWMASet
                0x00000b90                timerAttach
                0x0000111e                timer1PWMOff
                0x00000ede                __vector_10
                0x00000b64                timer1GetPrescaler
                0x00000b3c                timer2ClearOverflowCount
                0x00000ba6                timerPause
 .text          0x00001144       0xb2 /opt/local/avr/sixcode//a2d.o
                0x00001178                a2dIsComplete
                0x000011aa                a2dConvert8bit
                0x00001160                a2dOff
                0x00001144                a2dSetPrescaler
                0x00001182                a2dConvert10bit
                0x000011d8                a2dInit
                0x0000114e                a2dSetReference
                0x000011ba                __vector_16
                0x00001166                a2dSetChannel
                0x00001172                a2dStartConvert
 .text          0x000011f6       0x86 /opt/local/avr/sixcode//vt100.o
                0x000011f6                vt100Init
                0x0000120a                vt100SetAttr
                0x0000122c                vt100SetCursorMode
                0x0000124e                vt100SetCursorPos
                0x00001200                vt100ClearScreen
 .text          0x0000127c      0x238 /opt/local/avr/sixcode//servo.o
                0x0000127c                servoInit
                0x000012fc                servoOff
                0x0000135e                servoSetPosition
                0x0000137c                servoGetPositionRaw
                0x0000130a                servoSetChannelIO
                0x00001392                servoService
                0x00001478                servoGetPosition
                0x00001330                servoSetPositionRaw
 .text          0x000014b4      0x4c2 /opt/local/avr/sixcode//i2c.o
                0x000014e2                i2cInit
                0x00001542                i2cSendStart
                0x00001556                i2cWaitForComplete
                0x00001580                i2cGetReceivedByte
                0x00001596                i2cMasterSend
                0x000015e4                i2cMasterReceive
                0x0000163e                i2cMasterSendNI
                0x000016ac                __vector_19
                0x0000152e                i2cSetSlaveReceiveHandler
                0x0000158c                i2cGetState
                0x00001586                i2cGetStatus
                0x0000155e                i2cSendByte
                0x00001538                i2cSetSlaveTransmitHandler
                0x00001520                i2cSetLocalDeviceAddr
                0x000018f8                i2cMasterReceiveNI
                0x0000156a                i2cReceiveByte
                0x000014b4                i2cSetBitrate
                0x0000154c                i2cSendStop
 .text          0x00001976      0x53a /opt/local/avr/sixcode//cmdline.o
                0x00001990                cmdlineAddCommand
                0x00001976                cmdlineInit
                0x00001bb8                cmdlineInputFunc
                0x00001e78                cmdlineGetArgHex
                0x00001a46                cmdlineDoHistory
                0x00001dce                cmdlineMainLoop
                0x00001b2e                cmdlineProcessInputString
                0x000019ce                cmdlineSetOutputFunc
                0x000019d8                cmdlinePrintPrompt
                0x00001dea                cmdlineGetArgStr
                0x00001a02                cmdlineRepaint
                0x00001a9c                cmdlinePrintError
                0x00001e40                cmdlineGetArgInt
 .text          0x00001eb0      0x748 cmdlinetest.o
                0x0000207e                dumpArgsStr
                0x00002450                i2cMaster_Receive
                0x00002322                i2cSlaveReceiveService
                0x00002572                setThrottleServo
                0x00002018                helpFunction
                0x000023cc                i2cMaster_Send
                0x00002560                setRightServo
                0x00002372                i2cMasterSendDiag
                0x000024ec                i2cMaster_Auto_Receive
                0x000025ca                setCamTiltServo
                0x0000254e                setLeftServo
                0x00002584                setFeedbackInterval
                0x00002284                main
                0x000021ae                dumpArgsHex
                0x00002418                i2cMaster_Auto_Send
                0x0000259c                setCamPanServo
                0x00001eb0                goCmdline
                0x00002346                i2cSlaveTransmitService
                0x000020f6                dumpArgsInt
                0x00002266                i2cSetup
                0x00002012                exitFunction
 .text          0x000025f8      0x256 /opt/local/lib/gcc/avr/4.0.2/../../../../avr/lib/avr5/libc.a(strtol.o)
                0x000025f8                strtol
 .text          0x0000284e        0xe /opt/local/lib/gcc/avr/4.0.2/../../../../avr/lib/avr5/libc.a(strcpy.o)
                0x0000284e                strcpy
 .text          0x0000285c       0x1c /opt/local/lib/gcc/avr/4.0.2/../../../../avr/lib/avr5/libc.a(strncmp.o)
                0x0000285c                strncmp
                0x00002878                . = ALIGN (0x2)
 *(.text.*)
 .text.libgcc   0x00002878       0x3e /opt/local/lib/gcc/avr/4.0.2/avr5/libgcc.a(_mulsi3.o)
                0x00002878                __mulsi3
 .text.libgcc   0x000028b6       0x28 /opt/local/lib/gcc/avr/4.0.2/avr5/libgcc.a(_udivmodhi4.o)
                0x000028b6                __udivmodhi4
 .text.libgcc   0x000028de       0x26 /opt/local/lib/gcc/avr/4.0.2/avr5/libgcc.a(_divmodhi4.o)
                0x000028de                __divmodhi4
                0x000028de                _div
 .text.libgcc   0x00002904       0x44 /opt/local/lib/gcc/avr/4.0.2/avr5/libgcc.a(_udivmodsi4.o)
                0x00002904                __udivmodsi4
 .text.libgcc   0x00002948       0x36 /opt/local/lib/gcc/avr/4.0.2/avr5/libgcc.a(_divmodsi4.o)
                0x00002948                __divmodsi4
 .text.ctype    0x0000297e       0x1e /opt/local/lib/gcc/avr/4.0.2/../../../../avr/lib/avr5/libc.a(isspace.o)
                0x0000297e                isspace
 .text.ctype    0x0000299c        0x6 /opt/local/lib/gcc/avr/4.0.2/../../../../avr/lib/avr5/libc.a(cty_isfalse.o)
                0x000029a0                __ctype_istrue
                0x0000299c                __ctype_isfalse
                0x000029a2                . = ALIGN (0x2)
 *(.fini9)
 *(.fini8)
 *(.fini7)
 *(.fini6)
 *(.fini5)
 *(.fini4)
 *(.fini3)
 *(.fini2)
 *(.fini1)
 *(.fini0)
 .fini0         0x000029a2        0x2 /opt/local/lib/gcc/avr/4.0.2/avr5/libgcc.a(_exit.o)
                0x000029a4                _etext = .

.data           0x00800060       0x5a load address 0x000029a4
                0x00800060                PROVIDE (__data_start, .)
 *(.data)
 .data          0x00800060       0x59 cmdlinetest.o
                0x00800062                masterBuffer
                0x00800080                slaveBuffer
                0x00800061                masterBufferLength
                0x0080007f                slaveBufferLength
                0x00800060                leftServoPos
 *(.gnu.linkonce.d*)
                0x008000ba                . = ALIGN (0x2)
 *fill*         0x008000b9        0x1 00
                0x008000ba                _edata = .
                0x008000ba                PROVIDE (__data_end, .)

.bss            0x008000ba      0x276
                0x008000ba                PROVIDE (__bss_start, .)
 *(.bss)
 .bss           0x008000ba       0x82 /opt/local/avr/sixcode//uart.o
 .bss           0x0080013c        0x2 /opt/local/avr/sixcode//rprintf.o
 .bss           0x0080013e       0x10 /opt/local/avr/sixcode//timer.o
 .bss           0x0080014e       0x4b /opt/local/avr/sixcode//i2c.o
 .bss           0x00800199       0xac /opt/local/avr/sixcode//cmdline.o
 .bss           0x00800245        0x4 cmdlinetest.o
                0x00800245                numTimesThrough
 *(COMMON)
 COMMON         0x00800249       0x14 /opt/local/avr/sixcode//uart.o
                0x00800249                uartReadyTx
                0x0080024a                uartRxBuffer
                0x00800252                uartBufferedTx
                0x00800253                uartTxBuffer
                0x0080025b                uartRxOverflow
 COMMON         0x0080025d        0xc /opt/local/avr/sixcode//timer.o
                0x0080025d                Timer0Reg0
                0x00800261                TimerPauseReg
                0x00800265                Timer2Reg0
 COMMON         0x00800269        0x1 /opt/local/avr/sixcode//a2d.o
                0x00800269                a2dCompleteFlag
 COMMON         0x0080026a       0x19 /opt/local/avr/sixcode//servo.o
                0x0080026a                ServoChannel
                0x0080026b                ServoChannels
                0x0080027f                ServoPosTics
                0x00800281                ServoPeriodTics
 COMMON         0x00800283       0xa6 /opt/local/avr/sixcode//cmdline.o
                0x00800283                CmdlineBufferLength
                0x00800284                CmdlineExecFunction
                0x00800286                CmdlineNumCommands
                0x00800287                CmdlineInputVT100State
                0x00800288                CmdlineBufferEditPos
                0x00800289                CmdlineBuffer
                0x008002d9                CmdlineHistory
 COMMON         0x00800329        0x5 cmdlinetest.o
                0x00800329                camPanServoPos
                0x0080032a                Run
                0x0080032b                camTiltServoPos
                0x0080032c                rightServoPos
                0x0080032d                throttleServoPos
 COMMON         0x0080032e        0x2 /opt/local/lib/gcc/avr/4.0.2/../../../../avr/lib/avr5/libc.a(errno.o)
                0x0080032e                errno
                0x00800330                PROVIDE (__bss_end, .)
                0x000029a4                __data_load_start = LOADADDR (.data)
                0x000029fe                __data_load_end = (__data_load_start + SIZEOF (.data))

.noinit         0x00800330        0x0
                0x00800330                PROVIDE (__noinit_start, .)
 *(.noinit*)
                0x00800330                PROVIDE (__noinit_end, .)
                0x00800330                _end = .
                0x00800330                PROVIDE (__heap_start, .)

.eeprom         0x00810000        0x0
 *(.eeprom*)
                0x00810000                __eeprom_end = .

.stab           0x00000000     0x6f0c
 *(.stab)
 .stab          0x00000000      0x36c /opt/local/lib/gcc/avr/4.0.2/../../../../avr/lib/avr5/crtm32.o
 .stab          0x0000036c      0x918 /opt/local/avr/sixcode//buffer.o
                                0x924 (size before relaxing)
 .stab          0x00000c84      0x840 /opt/local/avr/sixcode//uart.o
                                0xb04 (size before relaxing)
 .stab          0x000014c4      0xa68 /opt/local/avr/sixcode//rprintf.o
                                0xcf0 (size before relaxing)
 .stab          0x00001f2c      0xff0 /opt/local/avr/sixcode//timer.o
                               0x1338 (size before relaxing)
 .stab          0x00002f1c      0x510 /opt/local/avr/sixcode//a2d.o
                                0x7b0 (size before relaxing)
 .stab          0x0000342c      0x2f4 /opt/local/avr/sixcode//vt100.o
                                0x63c (size before relaxing)
 .stab          0x00003720      0x630 /opt/local/avr/sixcode//servo.o
                                0x8d0 (size before relaxing)
 .stab          0x00003d50      0xdd4 /opt/local/avr/sixcode//i2c.o
                               0x1140 (size before relaxing)
 .stab          0x00004b24      0xd20 /opt/local/avr/sixcode//cmdline.o
                               0x1068 (size before relaxing)
 .stab          0x00005844      0xf54 cmdlinetest.o
                               0x1290 (size before relaxing)
 .stab          0x00006798      0x414 /opt/local/lib/gcc/avr/4.0.2/../../../../avr/lib/avr5/libc.a(strtol.o)
                                0x420 (size before relaxing)
 .stab          0x00006bac       0xf0 /opt/local/lib/gcc/avr/4.0.2/../../../../avr/lib/avr5/libc.a(isspace.o)
                                 0xfc (size before relaxing)
 .stab          0x00006c9c       0x6c /opt/local/lib/gcc/avr/4.0.2/../../../../avr/lib/avr5/libc.a(strcpy.o)
                                 0x78 (size before relaxing)
 .stab          0x00006d08       0xc0 /opt/local/lib/gcc/avr/4.0.2/../../../../avr/lib/avr5/libc.a(strncmp.o)
                                 0xcc (size before relaxing)
 .stab          0x00006dc8       0xe4 /opt/local/lib/gcc/avr/4.0.2/../../../../avr/lib/avr5/libc.a(errno.o)
                                 0xf0 (size before relaxing)
 .stab          0x00006eac       0x60 /opt/local/lib/gcc/avr/4.0.2/../../../../avr/lib/avr5/libc.a(cty_isfalse.o)
                                 0x6c (size before relaxing)

.stabstr        0x00000000     0x30f1
 *(.stabstr)
 .stabstr       0x00000000     0x30f1 /opt/local/lib/gcc/avr/4.0.2/../../../../avr/lib/avr5/crtm32.o

.stab.excl
 *(.stab.excl)

.stab.exclstr
 *(.stab.exclstr)

.stab.index
 *(.stab.index)

.stab.indexstr
 *(.stab.indexstr)

.comment
 *(.comment)

.debug
 *(.debug)

.line
 *(.line)

.debug_srcinfo
 *(.debug_srcinfo)

.debug_sfnames
 *(.debug_sfnames)

.debug_aranges
 *(.debug_aranges)

.debug_pubnames
 *(.debug_pubnames)

.debug_info
 *(.debug_info)
 *(.gnu.linkonce.wi.*)

.debug_abbrev
 *(.debug_abbrev)

.debug_line
 *(.debug_line)

.debug_frame
 *(.debug_frame)

.debug_str
 *(.debug_str)

.debug_loc
 *(.debug_loc)

.debug_macinfo
 *(.debug_macinfo)
OUTPUT(cmdlinetest.elf elf32-avr)

Cross Reference Table

Symbol                                            File
CmdlineBuffer                                     /opt/local/avr/sixcode//cmdline.o
CmdlineBufferEditPos                              /opt/local/avr/sixcode//cmdline.o
CmdlineBufferLength                               /opt/local/avr/sixcode//cmdline.o
CmdlineCmdNotFound                                /opt/local/avr/sixcode//cmdline.o
CmdlineExecFunction                               /opt/local/avr/sixcode//cmdline.o
CmdlineHistory                                    /opt/local/avr/sixcode//cmdline.o
CmdlineInputVT100State                            /opt/local/avr/sixcode//cmdline.o
CmdlineNotice                                     /opt/local/avr/sixcode//cmdline.o
CmdlineNumCommands                                /opt/local/avr/sixcode//cmdline.o
CmdlinePrompt                                     /opt/local/avr/sixcode//cmdline.o
Run                                               cmdlinetest.o
ServoChannel                                      /opt/local/avr/sixcode//servo.o
ServoChannels                                     /opt/local/avr/sixcode//servo.o
ServoPeriodTics                                   /opt/local/avr/sixcode//servo.o
ServoPosTics                                      /opt/local/avr/sixcode//servo.o
Timer0Reg0                                        /opt/local/avr/sixcode//timer.o
Timer2Reg0                                        /opt/local/avr/sixcode//timer.o
TimerPauseReg                                     /opt/local/avr/sixcode//timer.o
TimerPrescaleFactor                               /opt/local/avr/sixcode//timer.o
TimerRTCPrescaleFactor                            /opt/local/avr/sixcode//timer.o
__bad_interrupt                                   /opt/local/lib/gcc/avr/4.0.2/../../../../avr/lib/avr5/crtm32.o
__bss_end                                         /opt/local/lib/gcc/avr/4.0.2/avr5/libgcc.a(_clear_bss.o)
__bss_start                                       /opt/local/lib/gcc/avr/4.0.2/avr5/libgcc.a(_clear_bss.o)
__ctype_isfalse                                   /opt/local/lib/gcc/avr/4.0.2/../../../../avr/lib/avr5/libc.a(cty_isfalse.o)
                                                  /opt/local/lib/gcc/avr/4.0.2/../../../../avr/lib/avr5/libc.a(isspace.o)
__ctype_istrue                                    /opt/local/lib/gcc/avr/4.0.2/../../../../avr/lib/avr5/libc.a(cty_isfalse.o)
__data_end                                        /opt/local/lib/gcc/avr/4.0.2/avr5/libgcc.a(_copy_data.o)
__data_load_start                                 /opt/local/lib/gcc/avr/4.0.2/avr5/libgcc.a(_copy_data.o)
__data_start                                      /opt/local/lib/gcc/avr/4.0.2/avr5/libgcc.a(_copy_data.o)
__divmodhi4                                       /opt/local/lib/gcc/avr/4.0.2/avr5/libgcc.a(_divmodhi4.o)
                                                  /opt/local/avr/sixcode//i2c.o
__divmodsi4                                       /opt/local/lib/gcc/avr/4.0.2/avr5/libgcc.a(_divmodsi4.o)
                                                  /opt/local/avr/sixcode//i2c.o
                                                  /opt/local/avr/sixcode//timer.o
__do_clear_bss                                    /opt/local/lib/gcc/avr/4.0.2/avr5/libgcc.a(_clear_bss.o)
                                                  /opt/local/lib/gcc/avr/4.0.2/../../../../avr/lib/avr5/libc.a(errno.o)
                                                  /opt/local/lib/gcc/avr/4.0.2/../../../../avr/lib/avr5/libc.a(strtol.o)
                                                  cmdlinetest.o
                                                  /opt/local/avr/sixcode//cmdline.o
                                                  /opt/local/avr/sixcode//i2c.o
                                                  /opt/local/avr/sixcode//servo.o
                                                  /opt/local/avr/sixcode//vt100.o
                                                  /opt/local/avr/sixcode//a2d.o
                                                  /opt/local/avr/sixcode//timer.o
                                                  /opt/local/avr/sixcode//rprintf.o
                                                  /opt/local/avr/sixcode//uart.o
                                                  /opt/local/avr/sixcode//buffer.o
__do_copy_data                                    /opt/local/lib/gcc/avr/4.0.2/avr5/libgcc.a(_copy_data.o)
                                                  /opt/local/lib/gcc/avr/4.0.2/../../../../avr/lib/avr5/libc.a(errno.o)
                                                  /opt/local/lib/gcc/avr/4.0.2/../../../../avr/lib/avr5/libc.a(strtol.o)
                                                  cmdlinetest.o
                                                  /opt/local/avr/sixcode//cmdline.o
                                                  /opt/local/avr/sixcode//i2c.o
                                                  /opt/local/avr/sixcode//servo.o
                                                  /opt/local/avr/sixcode//vt100.o
                                                  /opt/local/avr/sixcode//a2d.o
                                                  /opt/local/avr/sixcode//timer.o
                                                  /opt/local/avr/sixcode//rprintf.o
                                                  /opt/local/avr/sixcode//uart.o
                                                  /opt/local/avr/sixcode//buffer.o
__heap_end                                        /opt/local/lib/gcc/avr/4.0.2/../../../../avr/lib/avr5/crtm32.o
__init                                            /opt/local/lib/gcc/avr/4.0.2/../../../../avr/lib/avr5/crtm32.o
__mulsi3                                          /opt/local/lib/gcc/avr/4.0.2/avr5/libgcc.a(_mulsi3.o)
                                                  /opt/local/lib/gcc/avr/4.0.2/../../../../avr/lib/avr5/libc.a(strtol.o)
                                                  /opt/local/avr/sixcode//timer.o
__stack                                           /opt/local/lib/gcc/avr/4.0.2/../../../../avr/lib/avr5/crtm32.o
                                                  cmdlinetest.o
__udivmodhi4                                      /opt/local/lib/gcc/avr/4.0.2/avr5/libgcc.a(_udivmodhi4.o)
                                                  /opt/local/lib/gcc/avr/4.0.2/avr5/libgcc.a(_divmodhi4.o)
                                                  /opt/local/avr/sixcode//servo.o
                                                  /opt/local/avr/sixcode//timer.o
                                                  /opt/local/avr/sixcode//rprintf.o
                                                  /opt/local/avr/sixcode//buffer.o
__udivmodsi4                                      /opt/local/lib/gcc/avr/4.0.2/avr5/libgcc.a(_udivmodsi4.o)
                                                  /opt/local/lib/gcc/avr/4.0.2/../../../../avr/lib/avr5/libc.a(strtol.o)
                                                  /opt/local/lib/gcc/avr/4.0.2/avr5/libgcc.a(_divmodsi4.o)
                                                  /opt/local/avr/sixcode//timer.o
                                                  /opt/local/avr/sixcode//rprintf.o
                                                  /opt/local/avr/sixcode//uart.o
__vector_1                                        /opt/local/lib/gcc/avr/4.0.2/../../../../avr/lib/avr5/crtm32.o
__vector_10                                       /opt/local/avr/sixcode//timer.o
                                                  /opt/local/lib/gcc/avr/4.0.2/../../../../avr/lib/avr5/crtm32.o
__vector_11                                       /opt/local/avr/sixcode//timer.o
                                                  /opt/local/lib/gcc/avr/4.0.2/../../../../avr/lib/avr5/crtm32.o
__vector_12                                       /opt/local/lib/gcc/avr/4.0.2/../../../../avr/lib/avr5/crtm32.o
__vector_13                                       /opt/local/avr/sixcode//uart.o
                                                  /opt/local/lib/gcc/avr/4.0.2/../../../../avr/lib/avr5/crtm32.o
__vector_14                                       /opt/local/lib/gcc/avr/4.0.2/../../../../avr/lib/avr5/crtm32.o
__vector_15                                       /opt/local/avr/sixcode//uart.o
                                                  /opt/local/lib/gcc/avr/4.0.2/../../../../avr/lib/avr5/crtm32.o
__vector_16                                       /opt/local/avr/sixcode//a2d.o
                                                  /opt/local/lib/gcc/avr/4.0.2/../../../../avr/lib/avr5/crtm32.o
__vector_17                                       /opt/local/lib/gcc/avr/4.0.2/../../../../avr/lib/avr5/crtm32.o
__vector_18                                       /opt/local/lib/gcc/avr/4.0.2/../../../../avr/lib/avr5/crtm32.o
__vector_19                                       /opt/local/avr/sixcode//i2c.o
                                                  /opt/local/lib/gcc/avr/4.0.2/../../../../avr/lib/avr5/crtm32.o
__vector_2                                        /opt/local/lib/gcc/avr/4.0.2/../../../../avr/lib/avr5/crtm32.o
__vector_20                                       /opt/local/lib/gcc/avr/4.0.2/../../../../avr/lib/avr5/crtm32.o
__vector_3                                        /opt/local/lib/gcc/avr/4.0.2/../../../../avr/lib/avr5/crtm32.o
__vector_4                                        /opt/local/avr/sixcode//timer.o
                                                  /opt/local/lib/gcc/avr/4.0.2/../../../../avr/lib/avr5/crtm32.o
__vector_5                                        /opt/local/avr/sixcode//timer.o
                                                  /opt/local/lib/gcc/avr/4.0.2/../../../../avr/lib/avr5/crtm32.o
__vector_6                                        /opt/local/avr/sixcode//timer.o
                                                  /opt/local/lib/gcc/avr/4.0.2/../../../../avr/lib/avr5/crtm32.o
__vector_7                                        /opt/local/avr/sixcode//timer.o
                                                  /opt/local/lib/gcc/avr/4.0.2/../../../../avr/lib/avr5/crtm32.o
__vector_8                                        /opt/local/avr/sixcode//timer.o
                                                  /opt/local/lib/gcc/avr/4.0.2/../../../../avr/lib/avr5/crtm32.o
__vector_9                                        /opt/local/avr/sixcode//timer.o
                                                  /opt/local/lib/gcc/avr/4.0.2/../../../../avr/lib/avr5/crtm32.o
__vector_default                                  /opt/local/lib/gcc/avr/4.0.2/../../../../avr/lib/avr5/crtm32.o
__vectors                                         /opt/local/lib/gcc/avr/4.0.2/../../../../avr/lib/avr5/crtm32.o
_div                                              /opt/local/lib/gcc/avr/4.0.2/avr5/libgcc.a(_divmodhi4.o)
_exit                                             /opt/local/lib/gcc/avr/4.0.2/avr5/libgcc.a(_exit.o)
a2dCompleteFlag                                   /opt/local/avr/sixcode//a2d.o
a2dConvert10bit                                   /opt/local/avr/sixcode//a2d.o
a2dConvert8bit                                    /opt/local/avr/sixcode//a2d.o
a2dInit                                           /opt/local/avr/sixcode//a2d.o
                                                  cmdlinetest.o
a2dIsComplete                                     /opt/local/avr/sixcode//a2d.o
a2dOff                                            /opt/local/avr/sixcode//a2d.o
a2dSetChannel                                     /opt/local/avr/sixcode//a2d.o
a2dSetPrescaler                                   /opt/local/avr/sixcode//a2d.o
a2dSetReference                                   /opt/local/avr/sixcode//a2d.o
a2dStartConvert                                   /opt/local/avr/sixcode//a2d.o
bufferAddToEnd                                    /opt/local/avr/sixcode//buffer.o
                                                  /opt/local/avr/sixcode//uart.o
bufferDumpFromFront                               /opt/local/avr/sixcode//buffer.o
bufferFlush                                       /opt/local/avr/sixcode//buffer.o
bufferGetAtIndex                                  /opt/local/avr/sixcode//buffer.o
bufferGetFromFront                                /opt/local/avr/sixcode//buffer.o
                                                  /opt/local/avr/sixcode//uart.o
bufferInit                                        /opt/local/avr/sixcode//buffer.o
                                                  /opt/local/avr/sixcode//uart.o
bufferIsNotFull                                   /opt/local/avr/sixcode//buffer.o
camPanServoPos                                    cmdlinetest.o
camTiltServoPos                                   cmdlinetest.o
cmdlineAddCommand                                 /opt/local/avr/sixcode//cmdline.o
                                                  cmdlinetest.o
cmdlineDoHistory                                  /opt/local/avr/sixcode//cmdline.o
cmdlineGetArgHex                                  /opt/local/avr/sixcode//cmdline.o
                                                  cmdlinetest.o
cmdlineGetArgInt                                  /opt/local/avr/sixcode//cmdline.o
                                                  cmdlinetest.o
cmdlineGetArgStr                                  /opt/local/avr/sixcode//cmdline.o
                                                  cmdlinetest.o
cmdlineInit                                       /opt/local/avr/sixcode//cmdline.o
                                                  cmdlinetest.o
cmdlineInputFunc                                  /opt/local/avr/sixcode//cmdline.o
                                                  cmdlinetest.o
cmdlineMainLoop                                   /opt/local/avr/sixcode//cmdline.o
                                                  cmdlinetest.o
cmdlinePrintError                                 /opt/local/avr/sixcode//cmdline.o
cmdlinePrintPrompt                                /opt/local/avr/sixcode//cmdline.o
cmdlineProcessInputString                         /opt/local/avr/sixcode//cmdline.o
cmdlineRepaint                                    /opt/local/avr/sixcode//cmdline.o
cmdlineSetOutputFunc                              /opt/local/avr/sixcode//cmdline.o
                                                  cmdlinetest.o
delay_us                                          /opt/local/avr/sixcode//timer.o
dumpArgsHex                                       cmdlinetest.o
dumpArgsInt                                       cmdlinetest.o
dumpArgsStr                                       cmdlinetest.o
errno                                             /opt/local/lib/gcc/avr/4.0.2/../../../../avr/lib/avr5/libc.a(errno.o)
                                                  /opt/local/lib/gcc/avr/4.0.2/../../../../avr/lib/avr5/libc.a(strtol.o)
exit                                              /opt/local/lib/gcc/avr/4.0.2/avr5/libgcc.a(_exit.o)
                                                  cmdlinetest.o
exitFunction                                      cmdlinetest.o
goCmdline                                         cmdlinetest.o
helpFunction                                      cmdlinetest.o
i2cGetReceivedByte                                /opt/local/avr/sixcode//i2c.o
i2cGetState                                       /opt/local/avr/sixcode//i2c.o
i2cGetStatus                                      /opt/local/avr/sixcode//i2c.o
i2cInit                                           /opt/local/avr/sixcode//i2c.o
                                                  cmdlinetest.o
i2cMasterReceive                                  /opt/local/avr/sixcode//i2c.o
                                                  cmdlinetest.o
i2cMasterReceiveNI                                /opt/local/avr/sixcode//i2c.o
i2cMasterSend                                     /opt/local/avr/sixcode//i2c.o
                                                  cmdlinetest.o
i2cMasterSendDiag                                 cmdlinetest.o
i2cMasterSendNI                                   /opt/local/avr/sixcode//i2c.o
i2cMaster_Auto_Receive                            cmdlinetest.o
i2cMaster_Auto_Send                               cmdlinetest.o
i2cMaster_Receive                                 cmdlinetest.o
i2cMaster_Send                                    cmdlinetest.o
i2cReceiveByte                                    /opt/local/avr/sixcode//i2c.o
i2cSendByte                                       /opt/local/avr/sixcode//i2c.o
                                                  cmdlinetest.o
i2cSendStart                                      /opt/local/avr/sixcode//i2c.o
                                                  cmdlinetest.o
i2cSendStop                                       /opt/local/avr/sixcode//i2c.o
                                                  cmdlinetest.o
i2cSetBitrate                                     /opt/local/avr/sixcode//i2c.o
i2cSetLocalDeviceAddr                             /opt/local/avr/sixcode//i2c.o
                                                  cmdlinetest.o
i2cSetSlaveReceiveHandler                         /opt/local/avr/sixcode//i2c.o
                                                  cmdlinetest.o
i2cSetSlaveTransmitHandler                        /opt/local/avr/sixcode//i2c.o
                                                  cmdlinetest.o
i2cSetup                                          cmdlinetest.o
i2cSlaveReceiveService                            cmdlinetest.o
i2cSlaveTransmitService                           cmdlinetest.o
i2cWaitForComplete                                /opt/local/avr/sixcode//i2c.o
                                                  cmdlinetest.o
isspace                                           /opt/local/lib/gcc/avr/4.0.2/../../../../avr/lib/avr5/libc.a(isspace.o)
                                                  /opt/local/lib/gcc/avr/4.0.2/../../../../avr/lib/avr5/libc.a(strtol.o)
leftServoPos                                      cmdlinetest.o
main                                              cmdlinetest.o
                                                  /opt/local/lib/gcc/avr/4.0.2/../../../../avr/lib/avr5/crtm32.o
masterBuffer                                      cmdlinetest.o
masterBufferLength                                cmdlinetest.o
numTimesThrough                                   cmdlinetest.o
rightServoPos                                     cmdlinetest.o
rprintf1RamRom                                    /opt/local/avr/sixcode//rprintf.o
                                                  cmdlinetest.o
                                                  /opt/local/avr/sixcode//vt100.o
rprintfCRLF                                       /opt/local/avr/sixcode//rprintf.o
                                                  cmdlinetest.o
rprintfChar                                       /opt/local/avr/sixcode//rprintf.o
rprintfInit                                       /opt/local/avr/sixcode//rprintf.o
                                                  cmdlinetest.o
rprintfNum                                        /opt/local/avr/sixcode//rprintf.o
                                                  cmdlinetest.o
rprintfProgStr                                    /opt/local/avr/sixcode//rprintf.o
                                                  cmdlinetest.o
                                                  /opt/local/avr/sixcode//vt100.o
rprintfStr                                        /opt/local/avr/sixcode//rprintf.o
                                                  cmdlinetest.o
rprintfStrLen                                     /opt/local/avr/sixcode//rprintf.o
rprintfu04                                        /opt/local/avr/sixcode//rprintf.o
rprintfu08                                        /opt/local/avr/sixcode//rprintf.o
rprintfu16                                        /opt/local/avr/sixcode//rprintf.o
rprintfu32                                        /opt/local/avr/sixcode//rprintf.o
servoGetPosition                                  /opt/local/avr/sixcode//servo.o
servoGetPositionRaw                               /opt/local/avr/sixcode//servo.o
servoInit                                         /opt/local/avr/sixcode//servo.o
                                                  cmdlinetest.o
servoOff                                          /opt/local/avr/sixcode//servo.o
servoService                                      /opt/local/avr/sixcode//servo.o
servoSetChannelIO                                 /opt/local/avr/sixcode//servo.o
                                                  cmdlinetest.o
servoSetPosition                                  /opt/local/avr/sixcode//servo.o
                                                  cmdlinetest.o
servoSetPositionRaw                               /opt/local/avr/sixcode//servo.o
setCamPanServo                                    cmdlinetest.o
setCamTiltServo                                   cmdlinetest.o
setFeedbackInterval                               cmdlinetest.o
setLeftServo                                      cmdlinetest.o
setRightServo                                     cmdlinetest.o
setThrottleServo                                  cmdlinetest.o
slaveBuffer                                       cmdlinetest.o
slaveBufferLength                                 cmdlinetest.o
strcpy                                            /opt/local/lib/gcc/avr/4.0.2/../../../../avr/lib/avr5/libc.a(strcpy.o)
                                                  cmdlinetest.o
                                                  /opt/local/avr/sixcode//cmdline.o
strncmp                                           /opt/local/lib/gcc/avr/4.0.2/../../../../avr/lib/avr5/libc.a(strncmp.o)
                                                  /opt/local/avr/sixcode//cmdline.o
strtol                                            /opt/local/lib/gcc/avr/4.0.2/../../../../avr/lib/avr5/libc.a(strtol.o)
                                                  /opt/local/avr/sixcode//cmdline.o
throttleServoPos                                  cmdlinetest.o
timer0ClearOverflowCount                          /opt/local/avr/sixcode//timer.o
timer0GetOverflowCount                            /opt/local/avr/sixcode//timer.o
timer0GetPrescaler                                /opt/local/avr/sixcode//timer.o
timer0Init                                        /opt/local/avr/sixcode//timer.o
timer0SetPrescaler                                /opt/local/avr/sixcode//timer.o
timer1GetPrescaler                                /opt/local/avr/sixcode//timer.o
timer1Init                                        /opt/local/avr/sixcode//timer.o
timer1PWMAOff                                     /opt/local/avr/sixcode//timer.o
timer1PWMAOn                                      /opt/local/avr/sixcode//timer.o
timer1PWMASet                                     /opt/local/avr/sixcode//timer.o
timer1PWMBOff                                     /opt/local/avr/sixcode//timer.o
timer1PWMBOn                                      /opt/local/avr/sixcode//timer.o
timer1PWMBSet                                     /opt/local/avr/sixcode//timer.o
timer1PWMInit                                     /opt/local/avr/sixcode//timer.o
timer1PWMInitICR                                  /opt/local/avr/sixcode//timer.o
timer1PWMOff                                      /opt/local/avr/sixcode//timer.o
timer1SetPrescaler                                /opt/local/avr/sixcode//timer.o
                                                  /opt/local/avr/sixcode//servo.o
timer2ClearOverflowCount                          /opt/local/avr/sixcode//timer.o
timer2GetOverflowCount                            /opt/local/avr/sixcode//timer.o
timer2GetPrescaler                                /opt/local/avr/sixcode//timer.o
timer2Init                                        /opt/local/avr/sixcode//timer.o
timer2SetPrescaler                                /opt/local/avr/sixcode//timer.o
timerAttach                                       /opt/local/avr/sixcode//timer.o
                                                  /opt/local/avr/sixcode//servo.o
timerDetach                                       /opt/local/avr/sixcode//timer.o
                                                  /opt/local/avr/sixcode//servo.o
timerInit                                         /opt/local/avr/sixcode//timer.o
                                                  cmdlinetest.o
timerPause                                        /opt/local/avr/sixcode//timer.o
                                                  cmdlinetest.o
uartAddToTxBuffer                                 /opt/local/avr/sixcode//uart.o
uartBufferedTx                                    /opt/local/avr/sixcode//uart.o
uartFlushReceiveBuffer                            /opt/local/avr/sixcode//uart.o
uartGetByte                                       /opt/local/avr/sixcode//uart.o
uartGetRxBuffer                                   /opt/local/avr/sixcode//uart.o
uartGetTxBuffer                                   /opt/local/avr/sixcode//uart.o
uartInit                                          /opt/local/avr/sixcode//uart.o
                                                  cmdlinetest.o
uartInitBuffers                                   /opt/local/avr/sixcode//uart.o
uartReadyTx                                       /opt/local/avr/sixcode//uart.o
uartReceiveBufferIsEmpty                          /opt/local/avr/sixcode//uart.o
uartReceiveByte                                   /opt/local/avr/sixcode//uart.o
                                                  cmdlinetest.o
uartRxBuffer                                      /opt/local/avr/sixcode//uart.o
uartRxOverflow                                    /opt/local/avr/sixcode//uart.o
uartSendByte                                      /opt/local/avr/sixcode//uart.o
                                                  cmdlinetest.o
uartSendTxBuffer                                  /opt/local/avr/sixcode//uart.o
uartSetBaudRate                                   /opt/local/avr/sixcode//uart.o
                                                  cmdlinetest.o
uartSetRxHandler                                  /opt/local/avr/sixcode//uart.o
uartTxBuffer                                      /opt/local/avr/sixcode//uart.o
vt100ClearScreen                                  /opt/local/avr/sixcode//vt100.o
                                                  cmdlinetest.o
vt100Init                                         /opt/local/avr/sixcode//vt100.o
                                                  cmdlinetest.o
vt100SetAttr                                      /opt/local/avr/sixcode//vt100.o
vt100SetCursorMode                                /opt/local/avr/sixcode//vt100.o
vt100SetCursorPos                                 /opt/local/avr/sixcode//vt100.o
                                                  cmdlinetest.o
