Archive member included because of file (symbol)

../avrx/avrx.a(AvrXFifo.o)    AvrXBufferedSerial.o (AvrXPutFifo)
../avrx/avrx.a(avrx_tasking.o)
                              SerialExample.o (IntProlog)
../avrx/avrx.a(avrx_semaphores.o)
                              ../avrx/avrx.a(AvrXFifo.o) (AvrXWaitSemaphore)
../avrx/avrx.a(avrx_resetsemaphore.o)
                              ../avrx/avrx.a(AvrXFifo.o) (AvrXResetSemaphore)
../avrx/avrx.a(avrx_timequeue.o)
                              SerialExample.o (AvrXDelay)
../avrx/avrx.a(avrx_message.o)
                              ../avrx/avrx.a(avrx_timequeue.o) (AvrXIntSendMessage)
/opt/local/lib/gcc/avr/3.4.4/avr5/libgcc.a(_mulsi3.o)
                              SerialExample.o (__mulsi3)
/opt/local/lib/gcc/avr/3.4.4/avr5/libgcc.a(_udivmodhi4.o)
                              SerialExample.o (__udivmodhi4)
/opt/local/lib/gcc/avr/3.4.4/avr5/libgcc.a(_udivmodsi4.o)
                              SerialExample.o (__udivmodsi4)
/opt/local/lib/gcc/avr/3.4.4/avr5/libgcc.a(_divmodsi4.o)
                              SerialExample.o (__divmodsi4)
/opt/local/lib/gcc/avr/3.4.4/avr5/libgcc.a(_exit.o)
                              SerialExample.o (exit)
/opt/local/lib/gcc/avr/3.4.4/avr5/libgcc.a(_copy_data.o)
                              SerialExample.o (__do_copy_data)
/opt/local/lib/gcc/avr/3.4.4/avr5/libgcc.a(_clear_bss.o)
                              SerialExample.o (__do_clear_bss)
/opt/local/lib/gcc/avr/3.4.4/../../../../avr/lib/avr5/libc.a(atoi.o)
                              SerialExample.o (atoi)
/opt/local/lib/gcc/avr/3.4.4/../../../../avr/lib/avr5/libc.a(fdevopen.o)
                              SerialExample.o (fdevopen)
/opt/local/lib/gcc/avr/3.4.4/../../../../avr/lib/avr5/libc.a(fgetc.o)
                              SerialExample.o (fgetc)
/opt/local/lib/gcc/avr/3.4.4/../../../../avr/lib/avr5/libc.a(fputc.o)
                              SerialExample.o (fputc)
/opt/local/lib/gcc/avr/3.4.4/../../../../avr/lib/avr5/libc.a(mul10.o)
                              /opt/local/lib/gcc/avr/3.4.4/../../../../avr/lib/avr5/libc.a(atoi.o) (__mulhi_const_10)
/opt/local/lib/gcc/avr/3.4.4/../../../../avr/lib/avr5/libc.a(printf.o)
                              SerialExample.o (printf)
/opt/local/lib/gcc/avr/3.4.4/../../../../avr/lib/avr5/libc.a(printf_p.o)
                              SerialExample.o (printf_P)
/opt/local/lib/gcc/avr/3.4.4/../../../../avr/lib/avr5/libc.a(strcpy.o)
                              SerialExample.o (strcpy)
/opt/local/lib/gcc/avr/3.4.4/../../../../avr/lib/avr5/libc.a(vfprintf_std.o)
                              /opt/local/lib/gcc/avr/3.4.4/../../../../avr/lib/avr5/libc.a(printf.o) (vfprintf)
/opt/local/lib/gcc/avr/3.4.4/../../../../avr/lib/avr5/libc.a(calloc.o)
                              /opt/local/lib/gcc/avr/3.4.4/../../../../avr/lib/avr5/libc.a(fdevopen.o) (calloc)
/opt/local/lib/gcc/avr/3.4.4/../../../../avr/lib/avr5/libc.a(malloc.o)
                              /opt/local/lib/gcc/avr/3.4.4/../../../../avr/lib/avr5/libc.a(calloc.o) (malloc)
/opt/local/lib/gcc/avr/3.4.4/../../../../avr/lib/avr5/libc.a(memset.o)
                              /opt/local/lib/gcc/avr/3.4.4/../../../../avr/lib/avr5/libc.a(calloc.o) (memset)
/opt/local/lib/gcc/avr/3.4.4/../../../../avr/lib/avr5/libc.a(strlen_P.o)
                              /opt/local/lib/gcc/avr/3.4.4/../../../../avr/lib/avr5/libc.a(vfprintf_std.o) (strlen_P)
/opt/local/lib/gcc/avr/3.4.4/../../../../avr/lib/avr5/libc.a(strnlen.o)
                              /opt/local/lib/gcc/avr/3.4.4/../../../../avr/lib/avr5/libc.a(vfprintf_std.o) (strnlen)
/opt/local/lib/gcc/avr/3.4.4/../../../../avr/lib/avr5/libc.a(strnlen_P.o)
                              /opt/local/lib/gcc/avr/3.4.4/../../../../avr/lib/avr5/libc.a(vfprintf_std.o) (strnlen_P)

Allocating common symbols
Common symbol       size              file

ServoChannel        0x1               SerialExample.o
_TimerQueue         0x2               ../avrx/avrx.a(avrx_timequeue.o)
ServoChannels       0x8               SerialExample.o
_TimQLevel          0x1               ../avrx/avrx.a(avrx_timequeue.o)
parserOutputFunc    0x2               SerialExample.o
ParserExecFunction  0x2               SerialExample.o
ParserFunctionList  0x14              SerialExample.o
parserNumCommands   0x1               SerialExample.o
ServoPosTics        0x2               SerialExample.o
Timer0Reg0          0x4               SerialExample.o
CommandList         0x96              SerialExample.o
AvrXKernelData      0x7               ../avrx/avrx.a(avrx_tasking.o)
TimerPauseReg       0x4               SerialExample.o
Tx0BufFifo          0x27              AvrXBufferedSerial.o
__brkval            0x2               /opt/local/lib/gcc/avr/3.4.4/../../../../avr/lib/avr5/libc.a(malloc.o)
Timer2Reg0          0x4               SerialExample.o
ServoPeriodTics     0x2               SerialExample.o
getCommandsPid      0x6               SerialExample.o
funcBParam          0x2               SerialExample.o
parserBuffer        0xf               SerialExample.o
parserBufferLength  0x1               SerialExample.o
marktribeStk        0x69              SerialExample.o
task0Pid            0x6               SerialExample.o
marktribePid        0x6               SerialExample.o
Rx0BufFifo          0x6b              AvrXBufferedSerial.o
__flp               0x2               /opt/local/lib/gcc/avr/3.4.4/../../../../avr/lib/avr5/libc.a(malloc.o)
funcAParam          0x2               SerialExample.o
task0Stk            0x6f              SerialExample.o
__iob               0x6               /opt/local/lib/gcc/avr/3.4.4/../../../../avr/lib/avr5/libc.a(fdevopen.o)
getCommandsStk      0x87              SerialExample.o

Memory Configuration

Name             Origin             Length             Attributes
text             0x00000000         0x00020000         xr
data             0x00800060         0x0000ffa0         rw !x
eeprom           0x00810000         0x00010000         rw !x
*default*        0x00000000         0xffffffff

Linker script and memory map

LOAD /opt/local/lib/gcc/avr/3.4.4/../../../../avr/lib/avr5/crtm32.o
LOAD SerialExample.o
LOAD AvrXBufferedSerial.o
LOAD ../avrx/avrx.a
LOAD /opt/local/lib/gcc/avr/3.4.4/../../../../avr/lib/avr5/libm.a
LOAD /opt/local/lib/gcc/avr/3.4.4/avr5/libgcc.a
LOAD /opt/local/lib/gcc/avr/3.4.4/../../../../avr/lib/avr5/libc.a
LOAD /opt/local/lib/gcc/avr/3.4.4/avr5/libgcc.a

.hash
 *(.hash)

.dynsym
 *(.dynsym)

.dynstr
 *(.dynstr)

.gnu.version
 *(.gnu.version)

.gnu.version_d
 *(.gnu.version_d)

.gnu.version_r
 *(.gnu.version_r)

.rel.init
 *(.rel.init)

.rela.init
 *(.rela.init)

.rel.text
 *(.rel.text)
 *(.rel.text.*)
 *(.rel.gnu.linkonce.t*)

.rela.text
 *(.rela.text)
 *(.rela.text.*)
 *(.rela.gnu.linkonce.t*)

.rel.fini
 *(.rel.fini)

.rela.fini
 *(.rela.fini)

.rel.rodata
 *(.rel.rodata)
 *(.rel.rodata.*)
 *(.rel.gnu.linkonce.r*)

.rela.rodata
 *(.rela.rodata)
 *(.rela.rodata.*)
 *(.rela.gnu.linkonce.r*)

.rel.data
 *(.rel.data)
 *(.rel.data.*)
 *(.rel.gnu.linkonce.d*)

.rela.data
 *(.rela.data)
 *(.rela.data.*)
 *(.rela.gnu.linkonce.d*)

.rel.ctors
 *(.rel.ctors)

.rela.ctors
 *(.rela.ctors)

.rel.dtors
 *(.rel.dtors)

.rela.dtors
 *(.rela.dtors)

.rel.got
 *(.rel.got)

.rela.got
 *(.rela.got)

.rel.bss
 *(.rel.bss)

.rela.bss
 *(.rela.bss)

.rel.plt
 *(.rel.plt)

.rela.plt
 *(.rela.plt)

.text           0x00000000     0x1df2
 *(.vectors)
 .vectors       0x00000000       0x54 /opt/local/lib/gcc/avr/3.4.4/../../../../avr/lib/avr5/crtm32.o
                0x00000000                __vectors
                0x00000000                __vector_default
                0x00000054                __ctors_start = .
 *(.ctors)
                0x00000054                __ctors_end = .
                0x00000054                __dtors_start = .
 *(.dtors)
                0x00000054                __dtors_end = .
 *(.progmem.gcc*)
 *(.progmem*)
 .progmem.data  0x00000054       0x54 SerialExample.o
                0x00000062                task0Tcb
                0x00000069                TimerRTCPrescaleFactor
                0x0000005b                getCommandsTcb
                0x00000079                TimerPrescaleFactor
                0x00000054                marktribeTcb
                0x000000a8                . = ALIGN (0x2)
 *(.init0)
 *(.init1)
 *(.init2)
 .init2         0x000000a8        0xc /opt/local/lib/gcc/avr/3.4.4/../../../../avr/lib/avr5/crtm32.o
 *(.init3)
 *(.init4)
 .init4         0x000000b4       0x16 /opt/local/lib/gcc/avr/3.4.4/avr5/libgcc.a(_copy_data.o)
                0x000000b4                __do_copy_data
 .init4         0x000000ca       0x10 /opt/local/lib/gcc/avr/3.4.4/avr5/libgcc.a(_clear_bss.o)
                0x000000ca                __do_clear_bss
 *(.init5)
 *(.init6)
 *(.init7)
 *(.init8)
 *(.init9)
 .init9         0x000000da        0x4 /opt/local/lib/gcc/avr/3.4.4/../../../../avr/lib/avr5/crtm32.o
 *(.text)
 .text          0x000000de        0x4 /opt/local/lib/gcc/avr/3.4.4/../../../../avr/lib/avr5/crtm32.o
                0x000000de                __vector_1
                0x000000de                __vector_12
                0x000000de                __bad_interrupt
                0x000000de                __vector_3
                0x000000de                __vector_17
                0x000000de                __vector_19
                0x000000de                __vector_2
                0x000000de                __vector_15
                0x000000de                __vector_16
                0x000000de                __vector_18
                0x000000de                __vector_20
 .text          0x000000e2      0xc0c SerialExample.o
                0x000000e2                parserInit
                0x0000046e                timer2GetOverflowCount
                0x0000020c                timerDetach
                0x00000252                timer1SetPrescaler
                0x000007d2                servoInit
                0x00000a60                task0
                0x000004ea                timer1PWMBOff
                0x000002f0                timer2GetPrescaler
                0x00000a30                myputs_P
                0x00000854                servoOff
                0x0000071e                __vector_6
                0x000001d4                parserGetArgStr
                0x0000023e                timer0Init
                0x000004dc                timer1PWMAOff
                0x00000530                timer1PWMBSet
                0x00000b60                marktribe
                0x000008b8                servoSetPosition
                0x000001a6                parserInputFunc
                0x00000a08                myputs
                0x000009f6                __vector_11
                0x000004b4                timer1PWMInitICR
                0x000002c0                timer0GetPrescaler
                0x0000066a                __vector_7
                0x00000c4e                testFunctionA
                0x00000132                parserSetOutputFunc
                0x00000458                timer0GetOverflowCount
                0x00000590                __vector_5
                0x0000029e                timerInit
                0x000008d8                servoGetPositionRaw
                0x0000026e                timer2SetPrescaler
                0x00000862                servoSetChannelIO
                0x0000050e                timer1PWMAOn
                0x00000222                timer0SetPrescaler
                0x000001e4                delay_us
                0x00000c9e                testFunctionB
                0x00000bb2                main
                0x00000778                __vector_4
                0x00000918                servoService
                0x0000022c                timer0ClearOverflowCount
                0x00000536                __vector_9
                0x0000025c                timer1Init
                0x0000013c                parserProcessInputString
                0x000001da                parserGetArgInt
                0x000008ee                servoGetPosition
                0x0000088e                servoSetPositionRaw
                0x00000484                timer1PWMInit
                0x0000051c                timer1PWMBOn
                0x00000b1c                getCommands
                0x0000028a                timer2Init
                0x000006c4                __vector_8
                0x0000052a                timer1PWMASet
                0x00000308                timerAttach
                0x000004f8                timer1PWMOff
                0x00000610                __vector_10
                0x000002d8                timer1GetPrescaler
                0x00000278                timer2ClearOverflowCount
                0x0000031e                timerPause
                0x000000f4                parserAddCommand
 .text          0x00000cee       0x9a AvrXBufferedSerial.o
                0x00000d40                get_c0
                0x00000d20                put_c0
                0x00000d4a                get_char0
                0x00000cee                InitSerial0
                0x00000d54                __vector_13
                0x00000d2e                put_char0
                0x00000d6c                __vector_14
 .text          0x00000d88      0x120 ../avrx/avrx.a(AvrXFifo.o)
                0x00000e4e                AvrXFlushFifo
                0x00000d88                AvrXPutFifo
                0x00000e02                AvrXWaitPutFifo
                0x00000dc0                AvrXPullFifo
                0x00000e6c                AvrXPeekFifo
                0x00000e2c                AvrXWaitPullFifo
                0x00000e86                AvrXStatFifo
 .text          0x00000ea8       0x5a /opt/local/lib/gcc/avr/3.4.4/../../../../avr/lib/avr5/libc.a(atoi.o)
                0x00000ea8                atoi
 .text          0x00000f02       0x92 /opt/local/lib/gcc/avr/3.4.4/../../../../avr/lib/avr5/libc.a(fdevopen.o)
                0x00000f02                fdevopen
 .text          0x00000f94       0x7a /opt/local/lib/gcc/avr/3.4.4/../../../../avr/lib/avr5/libc.a(fgetc.o)
                0x00000f94                fgetc
 .text          0x0000100e       0x66 /opt/local/lib/gcc/avr/3.4.4/../../../../avr/lib/avr5/libc.a(fputc.o)
                0x0000100e                fputc
 .text          0x00001074       0x10 /opt/local/lib/gcc/avr/3.4.4/../../../../avr/lib/avr5/libc.a(mul10.o)
                0x00001074                __mulhi_const_10
 .text          0x00001084       0x2a /opt/local/lib/gcc/avr/3.4.4/../../../../avr/lib/avr5/libc.a(printf.o)
                0x00001084                printf
 .text          0x000010ae       0x4a /opt/local/lib/gcc/avr/3.4.4/../../../../avr/lib/avr5/libc.a(printf_p.o)
                0x000010ae                printf_P
 .text          0x000010f8        0xe /opt/local/lib/gcc/avr/3.4.4/../../../../avr/lib/avr5/libc.a(strcpy.o)
                0x000010f8                strcpy
 .text          0x00001106      0x57a /opt/local/lib/gcc/avr/3.4.4/../../../../avr/lib/avr5/libc.a(vfprintf_std.o)
                0x00001106                vfprintf
 .text          0x00001680       0x38 /opt/local/lib/gcc/avr/3.4.4/../../../../avr/lib/avr5/libc.a(calloc.o)
                0x00001680                calloc
 .text          0x000016b8      0x222 /opt/local/lib/gcc/avr/3.4.4/../../../../avr/lib/avr5/libc.a(malloc.o)
                0x000016b8                malloc
                0x00001816                free
 .text          0x000018da        0xe /opt/local/lib/gcc/avr/3.4.4/../../../../avr/lib/avr5/libc.a(memset.o)
                0x000018da                memset
 .text          0x000018e8       0x12 /opt/local/lib/gcc/avr/3.4.4/../../../../avr/lib/avr5/libc.a(strlen_P.o)
                0x000018e8                strlen_P
 .text          0x000018fa       0x16 /opt/local/lib/gcc/avr/3.4.4/../../../../avr/lib/avr5/libc.a(strnlen.o)
                0x000018fa                strnlen
 .text          0x00001910       0x16 /opt/local/lib/gcc/avr/3.4.4/../../../../avr/lib/avr5/libc.a(strnlen_P.o)
                0x00001910                strnlen_P
                0x00001926                . = ALIGN (0x2)
 *(.text.*)
 .text.avrx.avrx_tasking
                0x00001926      0x1d4 ../avrx/avrx.a(avrx_tasking.o)
                0x00001a48                AvrXRunTask
                0x00001a92                AvrXResume
                0x000019c2                _Epilog
                0x00001a4c                AvrXInitTask
                0x00001926                IntProlog
                0x00001a30                AvrXSetKernelStack
                0x00001aae                _QueuePid
                0x000019be                Epilog
 .text.avrx.avrx_semaphores
                0x00001afa       0xe2 ../avrx/avrx.a(avrx_semaphores.o)
                0x00001afa                AvrXWaitTimer
                0x00001b28                AvrXSetObjectSemaphore
                0x00001b28                AvrXAckMessage
                0x00001afa                AvrXWaitObjectSemaphore
                0x00001afe                AvrXWaitSemaphore
                0x00001b46                AvrXIntSetSemaphore
                0x00001bb6                _RemoveObjectAt
                0x00001afa                AvrXWaitMessageAck
                0x00001b42                AvrXIntSetObjectSemaphore
                0x00001baa                _RemoveFirstObject
                0x00001afa                AvrXWaitTask
                0x00001b7c                _AppendObject
                0x00001b98                _RemoveObject
                0x00001b2c                AvrXSetSemaphore
 .text.avrx.avrx_resetsemaphore
                0x00001bdc       0x22 ../avrx/avrx.a(avrx_resetsemaphore.o)
                0x00001bdc                AvrXResetObjectSemaphore
                0x00001be4                AvrXIntResetSemaphore
                0x00001be4                AvrXResetSemaphore
                0x00001bdc                AvrXIntResetObjectSemaphore
 .text.avrx.avrx_timequeue
                0x00001bfe       0xe4 ../avrx/avrx.a(avrx_timequeue.o)
                0x00001bfe                AvrXDelay
                0x00001c02                AvrXStartTimer
                0x00001c0a                CountNotZero
                0x00001c5a                AvrXTimerHandler
 .text.avrx.avrx_message
                0x00001ce2       0x2e ../avrx/avrx.a(avrx_message.o)
                0x00001cec                AvrXIntSendMessage
                0x00001cf4                AvrXWaitMessage
                0x00001ce2                AvrXSendMessage
 .text.libgcc   0x00001d10       0x3e /opt/local/lib/gcc/avr/3.4.4/avr5/libgcc.a(_mulsi3.o)
                0x00001d10                __mulsi3
 .text.libgcc   0x00001d4e       0x28 /opt/local/lib/gcc/avr/3.4.4/avr5/libgcc.a(_udivmodhi4.o)
                0x00001d4e                __udivmodhi4
 .text.libgcc   0x00001d76       0x44 /opt/local/lib/gcc/avr/3.4.4/avr5/libgcc.a(_udivmodsi4.o)
                0x00001d76                __udivmodsi4
 .text.libgcc   0x00001dba       0x36 /opt/local/lib/gcc/avr/3.4.4/avr5/libgcc.a(_divmodsi4.o)
                0x00001dba                __divmodsi4
                0x00001df0                . = ALIGN (0x2)
 *(.fini9)
 *(.fini8)
 *(.fini7)
 *(.fini6)
 *(.fini5)
 *(.fini4)
 *(.fini3)
 *(.fini2)
 *(.fini1)
 *(.fini0)
 .fini0         0x00001df0        0x2 /opt/local/lib/gcc/avr/3.4.4/avr5/libgcc.a(_exit.o)
                0x00001df2                _etext = .

.data           0x00800060       0x7a load address 0x00001df2
                0x00800060                PROVIDE (__data_start, .)
 *(.data)
 .data          0x00800060       0x70 SerialExample.o
 .data          0x008000d0        0x4 AvrXBufferedSerial.o
                0x008000d0                Tx0Buf
                0x008000d2                Rx0Buf
 .data          0x008000d4        0x6 /opt/local/lib/gcc/avr/3.4.4/../../../../avr/lib/avr5/libc.a(malloc.o)
                0x008000d6                __malloc_heap_start
                0x008000d4                __malloc_heap_end
                0x008000d8                __malloc_margin
 *(.gnu.linkonce.d*)
                0x008000da                . = ALIGN (0x2)
                0x008000da                _edata = .
                0x008000da                PROVIDE (__data_end, .)

.bss            0x008000da      0x307
                0x008000da                PROVIDE (__bss_start, .)
 *(.bss)
 .bss           0x008000da       0x10 SerialExample.o
 *(COMMON)
 COMMON         0x008000ea      0x24d SerialExample.o
                                  0x0 (size before relaxing)
                0x008000ea                ServoChannel
                0x008000eb                ServoChannels
                0x008000f3                parserOutputFunc
                0x008000f5                ParserExecFunction
                0x008000f7                ParserFunctionList
                0x0080010b                parserNumCommands
                0x0080010c                ServoPosTics
                0x0080010e                Timer0Reg0
                0x00800112                CommandList
                0x008001a8                TimerPauseReg
                0x008001ac                Timer2Reg0
                0x008001b0                ServoPeriodTics
                0x008001b2                getCommandsPid
                0x008001b8                funcBParam
                0x008001ba                parserBuffer
                0x008001c9                parserBufferLength
                0x008001ca                marktribeStk
                0x00800233                task0Pid
                0x00800239                marktribePid
                0x0080023f                funcAParam
                0x00800241                task0Stk
                0x008002b0                getCommandsStk
 COMMON         0x00800337       0x92 AvrXBufferedSerial.o
                                  0x0 (size before relaxing)
                0x00800337                Tx0BufFifo
                0x0080035e                Rx0BufFifo
 *fill*         0x008003c9        0x3 00
 COMMON         0x008003cc        0x7 ../avrx/avrx.a(avrx_tasking.o)
                                  0x0 (size before relaxing)
                0x008003cc                AvrXKernelData
 *fill*         0x008003d3        0x1 00
 COMMON         0x008003d4        0x3 ../avrx/avrx.a(avrx_timequeue.o)
                                  0x0 (size before relaxing)
                0x008003d4                _TimerQueue
                0x008003d6                _TimQLevel
 COMMON         0x008003d7        0x6 /opt/local/lib/gcc/avr/3.4.4/../../../../avr/lib/avr5/libc.a(fdevopen.o)
                                  0x0 (size before relaxing)
                0x008003d7                __iob
 COMMON         0x008003dd        0x4 /opt/local/lib/gcc/avr/3.4.4/../../../../avr/lib/avr5/libc.a(malloc.o)
                                  0x0 (size before relaxing)
                0x008003dd                __brkval
                0x008003df                __flp
                0x008003e1                PROVIDE (__bss_end, .)
                0x00001df2                __data_load_start = LOADADDR (.data)
                0x00001e6c                __data_load_end = (__data_load_start + SIZEOF (.data))

.noinit         0x008003e1        0x0
                0x008003e1                PROVIDE (__noinit_start, .)
 *(.noinit*)
                0x008003e1                PROVIDE (__noinit_end, .)
                0x008003e1                _end = .
                0x008003e1                PROVIDE (__heap_start, .)

.eeprom         0x00810000        0x0 load address 0x00001e6c
 *(.eeprom*)
                0x00810000                __eeprom_end = .

.stab           0x00000000     0x6654
 *(.stab)
 .stab          0x00000000      0x2a0 /opt/local/lib/gcc/avr/3.4.4/../../../../avr/lib/avr5/crtm32.o
 .stab          0x000002a0     0x1e30 SerialExample.o
                               0x1e3c (size before relaxing)
 .stab          0x000020d0      0x444 AvrXBufferedSerial.o
                                0x63c (size before relaxing)
 .stab          0x00002514      0x690 ../avrx/avrx.a(AvrXFifo.o)
                                0x744 (size before relaxing)
 .stab          0x00002ba4      0xbc4 ../avrx/avrx.a(avrx_tasking.o)
                                0xbd0 (size before relaxing)
 .stab          0x00003768      0x654 ../avrx/avrx.a(avrx_semaphores.o)
                                0x660 (size before relaxing)
 .stab          0x00003dbc      0x120 ../avrx/avrx.a(avrx_resetsemaphore.o)
                                0x12c (size before relaxing)
 .stab          0x00003edc      0x534 ../avrx/avrx.a(avrx_timequeue.o)
                                0x540 (size before relaxing)
 .stab          0x00004410      0x168 ../avrx/avrx.a(avrx_message.o)
                                0x174 (size before relaxing)
 .stab          0x00004578      0x228 /opt/local/lib/gcc/avr/3.4.4/../../../../avr/lib/avr5/libc.a(atoi.o)
                                0x234 (size before relaxing)
 .stab          0x000047a0      0x3a8 /opt/local/lib/gcc/avr/3.4.4/../../../../avr/lib/avr5/libc.a(fdevopen.o)
                                0x408 (size before relaxing)
 .stab          0x00004b48      0x288 /opt/local/lib/gcc/avr/3.4.4/../../../../avr/lib/avr5/libc.a(fgetc.o)
                                0x384 (size before relaxing)
 .stab          0x00004dd0      0x21c /opt/local/lib/gcc/avr/3.4.4/../../../../avr/lib/avr5/libc.a(fputc.o)
                                0x318 (size before relaxing)
 .stab          0x00004fec       0x78 /opt/local/lib/gcc/avr/3.4.4/../../../../avr/lib/avr5/libc.a(mul10.o)
                                 0x84 (size before relaxing)
 .stab          0x00005064      0x1b0 /opt/local/lib/gcc/avr/3.4.4/../../../../avr/lib/avr5/libc.a(printf.o)
                                0x294 (size before relaxing)
 .stab          0x00005214      0x1d4 /opt/local/lib/gcc/avr/3.4.4/../../../../avr/lib/avr5/libc.a(printf_p.o)
                                0x2d0 (size before relaxing)
 .stab          0x000053e8       0x6c /opt/local/lib/gcc/avr/3.4.4/../../../../avr/lib/avr5/libc.a(strcpy.o)
                                 0x78 (size before relaxing)
 .stab          0x00005454      0x84c /opt/local/lib/gcc/avr/3.4.4/../../../../avr/lib/avr5/libc.a(vfprintf_std.o)
                                0x984 (size before relaxing)
 .stab          0x00005ca0      0x1ec /opt/local/lib/gcc/avr/3.4.4/../../../../avr/lib/avr5/libc.a(calloc.o)
                                0x228 (size before relaxing)
 .stab          0x00005e8c      0x5a0 /opt/local/lib/gcc/avr/3.4.4/../../../../avr/lib/avr5/libc.a(malloc.o)
                                0x690 (size before relaxing)
 .stab          0x0000642c       0x6c /opt/local/lib/gcc/avr/3.4.4/../../../../avr/lib/avr5/libc.a(memset.o)
                                 0x78 (size before relaxing)
 .stab          0x00006498       0x84 /opt/local/lib/gcc/avr/3.4.4/../../../../avr/lib/avr5/libc.a(strlen_P.o)
                                 0x90 (size before relaxing)
 .stab          0x0000651c       0x9c /opt/local/lib/gcc/avr/3.4.4/../../../../avr/lib/avr5/libc.a(strnlen.o)
                                 0xa8 (size before relaxing)
 .stab          0x000065b8       0x9c /opt/local/lib/gcc/avr/3.4.4/../../../../avr/lib/avr5/libc.a(strnlen_P.o)
                                 0xa8 (size before relaxing)

.stabstr        0x00000000     0x3333
 *(.stabstr)
 .stabstr       0x00000000     0x3333 /opt/local/lib/gcc/avr/3.4.4/../../../../avr/lib/avr5/crtm32.o
                                  0x0 (size before relaxing)

.stab.excl
 *(.stab.excl)

.stab.exclstr
 *(.stab.exclstr)

.stab.index
 *(.stab.index)

.stab.indexstr
 *(.stab.indexstr)

.comment
 *(.comment)

.debug
 *(.debug)

.line
 *(.line)

.debug_srcinfo
 *(.debug_srcinfo)

.debug_sfnames
 *(.debug_sfnames)

.debug_aranges
 *(.debug_aranges)

.debug_pubnames
 *(.debug_pubnames)

.debug_info
 *(.debug_info)
 *(.gnu.linkonce.wi.*)

.debug_abbrev
 *(.debug_abbrev)

.debug_line
 *(.debug_line)

.debug_frame
 *(.debug_frame)

.debug_str
 *(.debug_str)

.debug_loc
 *(.debug_loc)

.debug_macinfo
 *(.debug_macinfo)
OUTPUT(AvrXBufferedSerial.elf elf32-avr)

Cross Reference Table

Symbol                                            File
AvrXAckMessage                                    ../avrx/avrx.a(avrx_semaphores.o)
AvrXDelay                                         ../avrx/avrx.a(avrx_timequeue.o)
                                                  SerialExample.o
AvrXFlushFifo                                     ../avrx/avrx.a(AvrXFifo.o)
                                                  AvrXBufferedSerial.o
AvrXInitTask                                      ../avrx/avrx.a(avrx_tasking.o)
AvrXIntResetObjectSemaphore                       ../avrx/avrx.a(avrx_resetsemaphore.o)
                                                  ../avrx/avrx.a(avrx_timequeue.o)
AvrXIntResetSemaphore                             ../avrx/avrx.a(avrx_resetsemaphore.o)
AvrXIntSendMessage                                ../avrx/avrx.a(avrx_message.o)
                                                  ../avrx/avrx.a(avrx_timequeue.o)
AvrXIntSetObjectSemaphore                         ../avrx/avrx.a(avrx_semaphores.o)
                                                  ../avrx/avrx.a(avrx_message.o)
                                                  ../avrx/avrx.a(avrx_timequeue.o)
AvrXIntSetSemaphore                               ../avrx/avrx.a(avrx_semaphores.o)
AvrXKernelData                                    ../avrx/avrx.a(avrx_semaphores.o)
                                                  ../avrx/avrx.a(avrx_tasking.o)
AvrXPeekFifo                                      ../avrx/avrx.a(AvrXFifo.o)
AvrXPullFifo                                      ../avrx/avrx.a(AvrXFifo.o)
                                                  AvrXBufferedSerial.o
AvrXPutFifo                                       ../avrx/avrx.a(AvrXFifo.o)
                                                  AvrXBufferedSerial.o
AvrXResetObjectSemaphore                          ../avrx/avrx.a(avrx_resetsemaphore.o)
                                                  ../avrx/avrx.a(avrx_message.o)
AvrXResetSemaphore                                ../avrx/avrx.a(avrx_resetsemaphore.o)
                                                  ../avrx/avrx.a(AvrXFifo.o)
AvrXResume                                        ../avrx/avrx.a(avrx_tasking.o)
AvrXRunTask                                       ../avrx/avrx.a(avrx_tasking.o)
                                                  SerialExample.o
AvrXSendMessage                                   ../avrx/avrx.a(avrx_message.o)
AvrXSetKernelStack                                ../avrx/avrx.a(avrx_tasking.o)
                                                  SerialExample.o
AvrXSetObjectSemaphore                            ../avrx/avrx.a(avrx_semaphores.o)
                                                  ../avrx/avrx.a(avrx_timequeue.o)
AvrXSetSemaphore                                  ../avrx/avrx.a(avrx_semaphores.o)
                                                  ../avrx/avrx.a(AvrXFifo.o)
AvrXStartTimer                                    ../avrx/avrx.a(avrx_timequeue.o)
AvrXStatFifo                                      ../avrx/avrx.a(AvrXFifo.o)
AvrXTimerHandler                                  ../avrx/avrx.a(avrx_timequeue.o)
                                                  SerialExample.o
AvrXWaitMessage                                   ../avrx/avrx.a(avrx_message.o)
AvrXWaitMessageAck                                ../avrx/avrx.a(avrx_semaphores.o)
AvrXWaitObjectSemaphore                           ../avrx/avrx.a(avrx_semaphores.o)
                                                  ../avrx/avrx.a(avrx_message.o)
AvrXWaitPullFifo                                  ../avrx/avrx.a(AvrXFifo.o)
                                                  AvrXBufferedSerial.o
AvrXWaitPutFifo                                   ../avrx/avrx.a(AvrXFifo.o)
                                                  AvrXBufferedSerial.o
AvrXWaitSemaphore                                 ../avrx/avrx.a(avrx_semaphores.o)
                                                  ../avrx/avrx.a(AvrXFifo.o)
AvrXWaitTask                                      ../avrx/avrx.a(avrx_semaphores.o)
AvrXWaitTimer                                     ../avrx/avrx.a(avrx_semaphores.o)
                                                  ../avrx/avrx.a(avrx_timequeue.o)
CommandList                                       SerialExample.o
CountNotZero                                      ../avrx/avrx.a(avrx_timequeue.o)
Epilog                                            ../avrx/avrx.a(avrx_tasking.o)
                                                  AvrXBufferedSerial.o
                                                  SerialExample.o
InitSerial0                                       AvrXBufferedSerial.o
                                                  SerialExample.o
IntProlog                                         ../avrx/avrx.a(avrx_tasking.o)
                                                  ../avrx/avrx.a(avrx_message.o)
                                                  ../avrx/avrx.a(avrx_timequeue.o)
                                                  ../avrx/avrx.a(avrx_semaphores.o)
                                                  AvrXBufferedSerial.o
                                                  SerialExample.o
ParserExecFunction                                SerialExample.o
ParserFunctionList                                SerialExample.o
Rx0Buf                                            AvrXBufferedSerial.o
Rx0BufFifo                                        AvrXBufferedSerial.o
ServoChannel                                      SerialExample.o
ServoChannels                                     SerialExample.o
ServoPeriodTics                                   SerialExample.o
ServoPosTics                                      SerialExample.o
Timer0Reg0                                        SerialExample.o
Timer2Reg0                                        SerialExample.o
TimerPauseReg                                     SerialExample.o
TimerPrescaleFactor                               SerialExample.o
TimerRTCPrescaleFactor                            SerialExample.o
Tx0Buf                                            AvrXBufferedSerial.o
Tx0BufFifo                                        AvrXBufferedSerial.o
_AppendObject                                     ../avrx/avrx.a(avrx_semaphores.o)
                                                  ../avrx/avrx.a(avrx_message.o)
_Epilog                                           ../avrx/avrx.a(avrx_tasking.o)
                                                  ../avrx/avrx.a(avrx_message.o)
                                                  ../avrx/avrx.a(avrx_timequeue.o)
                                                  ../avrx/avrx.a(avrx_semaphores.o)
_QueuePid                                         ../avrx/avrx.a(avrx_tasking.o)
                                                  ../avrx/avrx.a(avrx_semaphores.o)
_RemoveFirstObject                                ../avrx/avrx.a(avrx_semaphores.o)
                                                  ../avrx/avrx.a(avrx_message.o)
_RemoveObject                                     ../avrx/avrx.a(avrx_semaphores.o)
_RemoveObjectAt                                   ../avrx/avrx.a(avrx_semaphores.o)
_TimQLevel                                        ../avrx/avrx.a(avrx_timequeue.o)
_TimerQueue                                       ../avrx/avrx.a(avrx_timequeue.o)
__bad_interrupt                                   /opt/local/lib/gcc/avr/3.4.4/../../../../avr/lib/avr5/crtm32.o
__brkval                                          /opt/local/lib/gcc/avr/3.4.4/../../../../avr/lib/avr5/libc.a(malloc.o)
__bss_end                                         /opt/local/lib/gcc/avr/3.4.4/avr5/libgcc.a(_clear_bss.o)
__bss_start                                       /opt/local/lib/gcc/avr/3.4.4/avr5/libgcc.a(_clear_bss.o)
__data_end                                        /opt/local/lib/gcc/avr/3.4.4/avr5/libgcc.a(_copy_data.o)
__data_load_start                                 /opt/local/lib/gcc/avr/3.4.4/avr5/libgcc.a(_copy_data.o)
__data_start                                      /opt/local/lib/gcc/avr/3.4.4/avr5/libgcc.a(_copy_data.o)
__divmodsi4                                       /opt/local/lib/gcc/avr/3.4.4/avr5/libgcc.a(_divmodsi4.o)
                                                  SerialExample.o
__do_clear_bss                                    /opt/local/lib/gcc/avr/3.4.4/avr5/libgcc.a(_clear_bss.o)
                                                  /opt/local/lib/gcc/avr/3.4.4/../../../../avr/lib/avr5/libc.a(malloc.o)
                                                  /opt/local/lib/gcc/avr/3.4.4/../../../../avr/lib/avr5/libc.a(calloc.o)
                                                  /opt/local/lib/gcc/avr/3.4.4/../../../../avr/lib/avr5/libc.a(vfprintf_std.o)
                                                  /opt/local/lib/gcc/avr/3.4.4/../../../../avr/lib/avr5/libc.a(printf_p.o)
                                                  /opt/local/lib/gcc/avr/3.4.4/../../../../avr/lib/avr5/libc.a(printf.o)
                                                  /opt/local/lib/gcc/avr/3.4.4/../../../../avr/lib/avr5/libc.a(fputc.o)
                                                  /opt/local/lib/gcc/avr/3.4.4/../../../../avr/lib/avr5/libc.a(fgetc.o)
                                                  /opt/local/lib/gcc/avr/3.4.4/../../../../avr/lib/avr5/libc.a(fdevopen.o)
                                                  ../avrx/avrx.a(AvrXFifo.o)
                                                  AvrXBufferedSerial.o
                                                  SerialExample.o
__do_copy_data                                    /opt/local/lib/gcc/avr/3.4.4/avr5/libgcc.a(_copy_data.o)
                                                  /opt/local/lib/gcc/avr/3.4.4/../../../../avr/lib/avr5/libc.a(malloc.o)
                                                  /opt/local/lib/gcc/avr/3.4.4/../../../../avr/lib/avr5/libc.a(calloc.o)
                                                  /opt/local/lib/gcc/avr/3.4.4/../../../../avr/lib/avr5/libc.a(vfprintf_std.o)
                                                  /opt/local/lib/gcc/avr/3.4.4/../../../../avr/lib/avr5/libc.a(printf_p.o)
                                                  /opt/local/lib/gcc/avr/3.4.4/../../../../avr/lib/avr5/libc.a(printf.o)
                                                  /opt/local/lib/gcc/avr/3.4.4/../../../../avr/lib/avr5/libc.a(fputc.o)
                                                  /opt/local/lib/gcc/avr/3.4.4/../../../../avr/lib/avr5/libc.a(fgetc.o)
                                                  /opt/local/lib/gcc/avr/3.4.4/../../../../avr/lib/avr5/libc.a(fdevopen.o)
                                                  ../avrx/avrx.a(AvrXFifo.o)
                                                  AvrXBufferedSerial.o
                                                  SerialExample.o
__flp                                             /opt/local/lib/gcc/avr/3.4.4/../../../../avr/lib/avr5/libc.a(malloc.o)
__heap_end                                        /opt/local/lib/gcc/avr/3.4.4/../../../../avr/lib/avr5/crtm32.o
                                                  /opt/local/lib/gcc/avr/3.4.4/../../../../avr/lib/avr5/libc.a(malloc.o)
__heap_start                                      /opt/local/lib/gcc/avr/3.4.4/../../../../avr/lib/avr5/libc.a(malloc.o)
__init                                            /opt/local/lib/gcc/avr/3.4.4/../../../../avr/lib/avr5/crtm32.o
__iob                                             /opt/local/lib/gcc/avr/3.4.4/../../../../avr/lib/avr5/libc.a(printf_p.o)
                                                  /opt/local/lib/gcc/avr/3.4.4/../../../../avr/lib/avr5/libc.a(printf.o)
                                                  /opt/local/lib/gcc/avr/3.4.4/../../../../avr/lib/avr5/libc.a(fdevopen.o)
                                                  SerialExample.o
__malloc_heap_end                                 /opt/local/lib/gcc/avr/3.4.4/../../../../avr/lib/avr5/libc.a(malloc.o)
__malloc_heap_start                               /opt/local/lib/gcc/avr/3.4.4/../../../../avr/lib/avr5/libc.a(malloc.o)
__malloc_margin                                   /opt/local/lib/gcc/avr/3.4.4/../../../../avr/lib/avr5/libc.a(malloc.o)
__mulhi_const_10                                  /opt/local/lib/gcc/avr/3.4.4/../../../../avr/lib/avr5/libc.a(mul10.o)
                                                  /opt/local/lib/gcc/avr/3.4.4/../../../../avr/lib/avr5/libc.a(atoi.o)
__mulsi3                                          /opt/local/lib/gcc/avr/3.4.4/avr5/libgcc.a(_mulsi3.o)
                                                  SerialExample.o
__stack                                           /opt/local/lib/gcc/avr/3.4.4/../../../../avr/lib/avr5/crtm32.o
                                                  SerialExample.o
__udivmodhi4                                      /opt/local/lib/gcc/avr/3.4.4/avr5/libgcc.a(_udivmodhi4.o)
                                                  SerialExample.o
__udivmodsi4                                      /opt/local/lib/gcc/avr/3.4.4/avr5/libgcc.a(_udivmodsi4.o)
                                                  /opt/local/lib/gcc/avr/3.4.4/../../../../avr/lib/avr5/libc.a(vfprintf_std.o)
                                                  /opt/local/lib/gcc/avr/3.4.4/avr5/libgcc.a(_divmodsi4.o)
                                                  SerialExample.o
__vector_1                                        /opt/local/lib/gcc/avr/3.4.4/../../../../avr/lib/avr5/crtm32.o
__vector_10                                       SerialExample.o
                                                  /opt/local/lib/gcc/avr/3.4.4/../../../../avr/lib/avr5/crtm32.o
__vector_11                                       SerialExample.o
                                                  /opt/local/lib/gcc/avr/3.4.4/../../../../avr/lib/avr5/crtm32.o
__vector_12                                       /opt/local/lib/gcc/avr/3.4.4/../../../../avr/lib/avr5/crtm32.o
__vector_13                                       AvrXBufferedSerial.o
                                                  /opt/local/lib/gcc/avr/3.4.4/../../../../avr/lib/avr5/crtm32.o
__vector_14                                       AvrXBufferedSerial.o
                                                  /opt/local/lib/gcc/avr/3.4.4/../../../../avr/lib/avr5/crtm32.o
__vector_15                                       /opt/local/lib/gcc/avr/3.4.4/../../../../avr/lib/avr5/crtm32.o
__vector_16                                       /opt/local/lib/gcc/avr/3.4.4/../../../../avr/lib/avr5/crtm32.o
__vector_17                                       /opt/local/lib/gcc/avr/3.4.4/../../../../avr/lib/avr5/crtm32.o
__vector_18                                       /opt/local/lib/gcc/avr/3.4.4/../../../../avr/lib/avr5/crtm32.o
__vector_19                                       /opt/local/lib/gcc/avr/3.4.4/../../../../avr/lib/avr5/crtm32.o
__vector_2                                        /opt/local/lib/gcc/avr/3.4.4/../../../../avr/lib/avr5/crtm32.o
__vector_20                                       /opt/local/lib/gcc/avr/3.4.4/../../../../avr/lib/avr5/crtm32.o
__vector_3                                        /opt/local/lib/gcc/avr/3.4.4/../../../../avr/lib/avr5/crtm32.o
__vector_4                                        SerialExample.o
                                                  /opt/local/lib/gcc/avr/3.4.4/../../../../avr/lib/avr5/crtm32.o
__vector_5                                        SerialExample.o
                                                  /opt/local/lib/gcc/avr/3.4.4/../../../../avr/lib/avr5/crtm32.o
__vector_6                                        SerialExample.o
                                                  /opt/local/lib/gcc/avr/3.4.4/../../../../avr/lib/avr5/crtm32.o
__vector_7                                        SerialExample.o
                                                  /opt/local/lib/gcc/avr/3.4.4/../../../../avr/lib/avr5/crtm32.o
__vector_8                                        SerialExample.o
                                                  /opt/local/lib/gcc/avr/3.4.4/../../../../avr/lib/avr5/crtm32.o
__vector_9                                        SerialExample.o
                                                  /opt/local/lib/gcc/avr/3.4.4/../../../../avr/lib/avr5/crtm32.o
__vector_default                                  /opt/local/lib/gcc/avr/3.4.4/../../../../avr/lib/avr5/crtm32.o
__vectors                                         /opt/local/lib/gcc/avr/3.4.4/../../../../avr/lib/avr5/crtm32.o
_exit                                             /opt/local/lib/gcc/avr/3.4.4/avr5/libgcc.a(_exit.o)
atoi                                              /opt/local/lib/gcc/avr/3.4.4/../../../../avr/lib/avr5/libc.a(atoi.o)
                                                  SerialExample.o
calloc                                            /opt/local/lib/gcc/avr/3.4.4/../../../../avr/lib/avr5/libc.a(calloc.o)
                                                  /opt/local/lib/gcc/avr/3.4.4/../../../../avr/lib/avr5/libc.a(fdevopen.o)
delay_us                                          SerialExample.o
exit                                              /opt/local/lib/gcc/avr/3.4.4/avr5/libgcc.a(_exit.o)
                                                  SerialExample.o
fdevopen                                          /opt/local/lib/gcc/avr/3.4.4/../../../../avr/lib/avr5/libc.a(fdevopen.o)
                                                  SerialExample.o
fgetc                                             /opt/local/lib/gcc/avr/3.4.4/../../../../avr/lib/avr5/libc.a(fgetc.o)
                                                  SerialExample.o
fputc                                             /opt/local/lib/gcc/avr/3.4.4/../../../../avr/lib/avr5/libc.a(fputc.o)
                                                  /opt/local/lib/gcc/avr/3.4.4/../../../../avr/lib/avr5/libc.a(vfprintf_std.o)
                                                  SerialExample.o
free                                              /opt/local/lib/gcc/avr/3.4.4/../../../../avr/lib/avr5/libc.a(malloc.o)
funcAParam                                        SerialExample.o
funcBParam                                        SerialExample.o
getCommands                                       SerialExample.o
getCommandsPid                                    SerialExample.o
getCommandsStk                                    SerialExample.o
getCommandsTcb                                    SerialExample.o
get_c0                                            AvrXBufferedSerial.o
                                                  SerialExample.o
get_char0                                         AvrXBufferedSerial.o
main                                              SerialExample.o
                                                  /opt/local/lib/gcc/avr/3.4.4/../../../../avr/lib/avr5/crtm32.o
malloc                                            /opt/local/lib/gcc/avr/3.4.4/../../../../avr/lib/avr5/libc.a(malloc.o)
                                                  /opt/local/lib/gcc/avr/3.4.4/../../../../avr/lib/avr5/libc.a(calloc.o)
marktribe                                         SerialExample.o
marktribePid                                      SerialExample.o
marktribeStk                                      SerialExample.o
marktribeTcb                                      SerialExample.o
memset                                            /opt/local/lib/gcc/avr/3.4.4/../../../../avr/lib/avr5/libc.a(memset.o)
                                                  /opt/local/lib/gcc/avr/3.4.4/../../../../avr/lib/avr5/libc.a(calloc.o)
myputs                                            SerialExample.o
myputs_P                                          SerialExample.o
parserAddCommand                                  SerialExample.o
parserBuffer                                      SerialExample.o
parserBufferLength                                SerialExample.o
parserGetArgInt                                   SerialExample.o
parserGetArgStr                                   SerialExample.o
parserInit                                        SerialExample.o
parserInputFunc                                   SerialExample.o
parserNumCommands                                 SerialExample.o
parserOutputFunc                                  SerialExample.o
parserProcessInputString                          SerialExample.o
parserSetOutputFunc                               SerialExample.o
printf                                            /opt/local/lib/gcc/avr/3.4.4/../../../../avr/lib/avr5/libc.a(printf.o)
                                                  SerialExample.o
printf_P                                          /opt/local/lib/gcc/avr/3.4.4/../../../../avr/lib/avr5/libc.a(printf_p.o)
                                                  SerialExample.o
put_c0                                            AvrXBufferedSerial.o
put_char0                                         AvrXBufferedSerial.o
                                                  SerialExample.o
servoGetPosition                                  SerialExample.o
servoGetPositionRaw                               SerialExample.o
servoInit                                         SerialExample.o
servoOff                                          SerialExample.o
servoService                                      SerialExample.o
servoSetChannelIO                                 SerialExample.o
servoSetPosition                                  SerialExample.o
servoSetPositionRaw                               SerialExample.o
strcpy                                            /opt/local/lib/gcc/avr/3.4.4/../../../../avr/lib/avr5/libc.a(strcpy.o)
                                                  SerialExample.o
strlen_P                                          /opt/local/lib/gcc/avr/3.4.4/../../../../avr/lib/avr5/libc.a(strlen_P.o)
                                                  /opt/local/lib/gcc/avr/3.4.4/../../../../avr/lib/avr5/libc.a(vfprintf_std.o)
strnlen                                           /opt/local/lib/gcc/avr/3.4.4/../../../../avr/lib/avr5/libc.a(strnlen.o)
                                                  /opt/local/lib/gcc/avr/3.4.4/../../../../avr/lib/avr5/libc.a(vfprintf_std.o)
strnlen_P                                         /opt/local/lib/gcc/avr/3.4.4/../../../../avr/lib/avr5/libc.a(strnlen_P.o)
                                                  /opt/local/lib/gcc/avr/3.4.4/../../../../avr/lib/avr5/libc.a(vfprintf_std.o)
task0                                             SerialExample.o
task0Pid                                          SerialExample.o
task0Stk                                          SerialExample.o
task0Tcb                                          SerialExample.o
testFunctionA                                     SerialExample.o
testFunctionB                                     SerialExample.o
timer0ClearOverflowCount                          SerialExample.o
timer0GetOverflowCount                            SerialExample.o
timer0GetPrescaler                                SerialExample.o
timer0Init                                        SerialExample.o
timer0SetPrescaler                                SerialExample.o
timer1GetPrescaler                                SerialExample.o
timer1Init                                        SerialExample.o
timer1PWMAOff                                     SerialExample.o
timer1PWMAOn                                      SerialExample.o
timer1PWMASet                                     SerialExample.o
timer1PWMBOff                                     SerialExample.o
timer1PWMBOn                                      SerialExample.o
timer1PWMBSet                                     SerialExample.o
timer1PWMInit                                     SerialExample.o
timer1PWMInitICR                                  SerialExample.o
timer1PWMOff                                      SerialExample.o
timer1SetPrescaler                                SerialExample.o
timer2ClearOverflowCount                          SerialExample.o
timer2GetOverflowCount                            SerialExample.o
timer2GetPrescaler                                SerialExample.o
timer2Init                                        SerialExample.o
timer2SetPrescaler                                SerialExample.o
timerAttach                                       SerialExample.o
timerDetach                                       SerialExample.o
timerInit                                         SerialExample.o
timerPause                                        SerialExample.o
vfprintf                                          /opt/local/lib/gcc/avr/3.4.4/../../../../avr/lib/avr5/libc.a(vfprintf_std.o)
                                                  /opt/local/lib/gcc/avr/3.4.4/../../../../avr/lib/avr5/libc.a(printf_p.o)
                                                  /opt/local/lib/gcc/avr/3.4.4/../../../../avr/lib/avr5/libc.a(printf.o)
