Archive member included because of file (symbol)

/opt/local/lib/gcc/avr/4.0.2/../../../../avr/lib/avr5/libm.a(addsf3.o)
                              /opt/local/avr/sixcode//rprintf.o (__subsf3)
/opt/local/lib/gcc/avr/4.0.2/../../../../avr/lib/avr5/libm.a(addsf3x.o)
                              /opt/local/lib/gcc/avr/4.0.2/../../../../avr/lib/avr5/libm.a(addsf3.o) (__addsf3x)
/opt/local/lib/gcc/avr/4.0.2/../../../../avr/lib/avr5/libm.a(atan2.o)
                              gpstest.o (atan2)
/opt/local/lib/gcc/avr/4.0.2/../../../../avr/lib/avr5/libm.a(cos.o)
                              gpstest.o (cos)
/opt/local/lib/gcc/avr/4.0.2/../../../../avr/lib/avr5/libm.a(divsf3.o)
                              /opt/local/avr/sixcode//rprintf.o (__divsf3)
/opt/local/lib/gcc/avr/4.0.2/../../../../avr/lib/avr5/libm.a(divsf3x.o)
                              /opt/local/lib/gcc/avr/4.0.2/../../../../avr/lib/avr5/libm.a(divsf3.o) (__divsf3x)
/opt/local/lib/gcc/avr/4.0.2/../../../../avr/lib/avr5/libm.a(fixsfsi.o)
                              gpstest.o (__fixsfsi)
/opt/local/lib/gcc/avr/4.0.2/../../../../avr/lib/avr5/libm.a(floatsisf.o)
                              /opt/local/avr/sixcode//rprintf.o (__floatsisf)
/opt/local/lib/gcc/avr/4.0.2/../../../../avr/lib/avr5/libm.a(fmod.o)
                              /opt/local/lib/gcc/avr/4.0.2/../../../../avr/lib/avr5/libm.a(cos.o) (fmod)
/opt/local/lib/gcc/avr/4.0.2/../../../../avr/lib/avr5/libm.a(fp_cmp.o)
                              /opt/local/avr/sixcode//rprintf.o (__eqsf2)
/opt/local/lib/gcc/avr/4.0.2/../../../../avr/lib/avr5/libm.a(fp_cosinus.o)
                              /opt/local/lib/gcc/avr/4.0.2/../../../../avr/lib/avr5/libm.a(cos.o) (__fp_cosinus)
/opt/local/lib/gcc/avr/4.0.2/../../../../avr/lib/avr5/libm.a(fp_merge.o)
                              /opt/local/lib/gcc/avr/4.0.2/../../../../avr/lib/avr5/libm.a(addsf3.o) (__fp_merge)
/opt/local/lib/gcc/avr/4.0.2/../../../../avr/lib/avr5/libm.a(fp_nan.o)
                              /opt/local/lib/gcc/avr/4.0.2/../../../../avr/lib/avr5/libm.a(atan2.o) (__fp_nanERANGE)
/opt/local/lib/gcc/avr/4.0.2/../../../../avr/lib/avr5/libm.a(fp_powerseries.o)
                              /opt/local/lib/gcc/avr/4.0.2/../../../../avr/lib/avr5/libm.a(fp_cosinus.o) (__fp_powerseries)
/opt/local/lib/gcc/avr/4.0.2/../../../../avr/lib/avr5/libm.a(fp_split.o)
                              /opt/local/lib/gcc/avr/4.0.2/../../../../avr/lib/avr5/libm.a(addsf3.o) (__fp_split3)
/opt/local/lib/gcc/avr/4.0.2/../../../../avr/lib/avr5/libm.a(fp_zero.o)
                              /opt/local/lib/gcc/avr/4.0.2/../../../../avr/lib/avr5/libm.a(fixsfsi.o) (__fp_zero)
/opt/local/lib/gcc/avr/4.0.2/../../../../avr/lib/avr5/libm.a(modf.o)
                              /opt/local/lib/gcc/avr/4.0.2/../../../../avr/lib/avr5/libm.a(fmod.o) (modf)
/opt/local/lib/gcc/avr/4.0.2/../../../../avr/lib/avr5/libm.a(mulsf3.o)
                              /opt/local/avr/sixcode//rprintf.o (__mulsf3)
/opt/local/lib/gcc/avr/4.0.2/../../../../avr/lib/avr5/libm.a(mulsf3x.o)
                              /opt/local/lib/gcc/avr/4.0.2/../../../../avr/lib/avr5/libm.a(mulsf3.o) (__mulsf3x)
/opt/local/lib/gcc/avr/4.0.2/../../../../avr/lib/avr5/libm.a(sin.o)
                              gpstest.o (sin)
/opt/local/lib/gcc/avr/4.0.2/../../../../avr/lib/avr5/libm.a(sqrt.o)
                              gpstest.o (sqrt)
/opt/local/lib/gcc/avr/4.0.2/../../../../avr/lib/avr5/libm.a(square.o)
                              /opt/local/lib/gcc/avr/4.0.2/../../../../avr/lib/avr5/libm.a(fp_cosinus.o) (square)
/opt/local/lib/gcc/avr/4.0.2/../../../../avr/lib/avr5/libm.a(strtod.o)
                              gpstest.o (atof)
/opt/local/lib/gcc/avr/4.0.2/../../../../avr/lib/avr5/libm.a(atan.o)
                              /opt/local/lib/gcc/avr/4.0.2/../../../../avr/lib/avr5/libm.a(atan2.o) (atan)
/opt/local/lib/gcc/avr/4.0.2/../../../../avr/lib/avr5/libm.a(fp_flashconst.o)
                              /opt/local/lib/gcc/avr/4.0.2/../../../../avr/lib/avr5/libm.a(fp_powerseries.o) (__fp_flashconst)
/opt/local/lib/gcc/avr/4.0.2/../../../../avr/lib/avr5/libm.a(fp_inverse.o)
                              /opt/local/lib/gcc/avr/4.0.2/../../../../avr/lib/avr5/libm.a(atan.o) (__fp_inverse)
/opt/local/lib/gcc/avr/4.0.2/../../../../avr/lib/avr5/libm.a(ldexp.o)
                              /opt/local/lib/gcc/avr/4.0.2/../../../../avr/lib/avr5/libm.a(sqrt.o) (ldexp)
/opt/local/lib/gcc/avr/4.0.2/../../../../avr/lib/avr5/libm.a(fp_m_inf.o)
                              /opt/local/lib/gcc/avr/4.0.2/../../../../avr/lib/avr5/libm.a(ldexp.o) (__fp_m_inf)
/opt/local/lib/gcc/avr/4.0.2/../../../../avr/lib/avr5/libm.a(fp_p_inf.o)
                              /opt/local/lib/gcc/avr/4.0.2/../../../../avr/lib/avr5/libm.a(ldexp.o) (__fp_p_inf)
/opt/local/lib/gcc/avr/4.0.2/avr5/libgcc.a(_mulsi3.o)
                              /opt/local/avr/sixcode//timer.o (__mulsi3)
/opt/local/lib/gcc/avr/4.0.2/avr5/libgcc.a(_udivmodhi4.o)
                              /opt/local/avr/sixcode//buffer.o (__udivmodhi4)
/opt/local/lib/gcc/avr/4.0.2/avr5/libgcc.a(_divmodhi4.o)
                              /opt/local/avr/sixcode//i2c.o (__divmodhi4)
/opt/local/lib/gcc/avr/4.0.2/avr5/libgcc.a(_udivmodsi4.o)
                              /opt/local/avr/sixcode//uart.o (__udivmodsi4)
/opt/local/lib/gcc/avr/4.0.2/avr5/libgcc.a(_divmodsi4.o)
                              /opt/local/avr/sixcode//timer.o (__divmodsi4)
/opt/local/lib/gcc/avr/4.0.2/avr5/libgcc.a(_prologue.o)
                              /opt/local/lib/gcc/avr/4.0.2/../../../../avr/lib/avr5/libm.a(strtod.o) (__prologue_saves__)
/opt/local/lib/gcc/avr/4.0.2/avr5/libgcc.a(_epilogue.o)
                              /opt/local/lib/gcc/avr/4.0.2/../../../../avr/lib/avr5/libm.a(strtod.o) (__epilogue_restores__)
/opt/local/lib/gcc/avr/4.0.2/avr5/libgcc.a(_copy_data.o)
                              /opt/local/avr/sixcode//buffer.o (__do_copy_data)
/opt/local/lib/gcc/avr/4.0.2/avr5/libgcc.a(_clear_bss.o)
                              /opt/local/avr/sixcode//buffer.o (__do_clear_bss)
/opt/local/lib/gcc/avr/4.0.2/../../../../avr/lib/avr5/libc.a(atoi.o)
                              gpstest.o (atoi)
/opt/local/lib/gcc/avr/4.0.2/../../../../avr/lib/avr5/libc.a(isalnum.o)
                              gpstest.o (isalnum)
/opt/local/lib/gcc/avr/4.0.2/../../../../avr/lib/avr5/libc.a(cty_isfalse.o)
                              /opt/local/lib/gcc/avr/4.0.2/../../../../avr/lib/avr5/libc.a(isalnum.o) (__ctype_isfalse)
/opt/local/lib/gcc/avr/4.0.2/../../../../avr/lib/avr5/libc.a(isalpha.o)
                              /opt/local/lib/gcc/avr/4.0.2/../../../../avr/lib/avr5/libc.a(isalnum.o) (isalpha)
/opt/local/lib/gcc/avr/4.0.2/../../../../avr/lib/avr5/libc.a(isdigit.o)
                              /opt/local/lib/gcc/avr/4.0.2/../../../../avr/lib/avr5/libc.a(isalnum.o) (isdigit)
/opt/local/lib/gcc/avr/4.0.2/../../../../avr/lib/avr5/libc.a(isxdigit.o)
                              gpstest.o (isxdigit)
/opt/local/lib/gcc/avr/4.0.2/../../../../avr/lib/avr5/libc.a(strncmp.o)
                              gpstest.o (strncmp)
/opt/local/lib/gcc/avr/4.0.2/../../../../avr/lib/avr5/libc.a(strncpy.o)
                              gpstest.o (strncpy)
/opt/local/lib/gcc/avr/4.0.2/../../../../avr/lib/avr5/libc.a(mul10.o)
                              /opt/local/lib/gcc/avr/4.0.2/../../../../avr/lib/avr5/libm.a(strtod.o) (__mulhi_const_10)
/opt/local/lib/gcc/avr/4.0.2/../../../../avr/lib/avr5/libc.a(printf.o)
                              gpstest.o (printf)
/opt/local/lib/gcc/avr/4.0.2/../../../../avr/lib/avr5/libc.a(vfprintf_std.o)
                              /opt/local/lib/gcc/avr/4.0.2/../../../../avr/lib/avr5/libc.a(printf.o) (vfprintf)
/opt/local/lib/gcc/avr/4.0.2/../../../../avr/lib/avr5/libc.a(strlen_P.o)
                              /opt/local/lib/gcc/avr/4.0.2/../../../../avr/lib/avr5/libc.a(vfprintf_std.o) (strlen_P)
/opt/local/lib/gcc/avr/4.0.2/../../../../avr/lib/avr5/libc.a(strnlen_P.o)
                              /opt/local/lib/gcc/avr/4.0.2/../../../../avr/lib/avr5/libc.a(vfprintf_std.o) (strnlen_P)
/opt/local/lib/gcc/avr/4.0.2/../../../../avr/lib/avr5/libc.a(strnlen.o)
                              /opt/local/lib/gcc/avr/4.0.2/../../../../avr/lib/avr5/libc.a(vfprintf_std.o) (strnlen)
/opt/local/lib/gcc/avr/4.0.2/../../../../avr/lib/avr5/libc.a(fputc.o)
                              /opt/local/lib/gcc/avr/4.0.2/../../../../avr/lib/avr5/libc.a(vfprintf_std.o) (fputc)
/opt/local/lib/gcc/avr/4.0.2/../../../../avr/lib/avr5/libc.a(iob.o)
                              /opt/local/lib/gcc/avr/4.0.2/../../../../avr/lib/avr5/libc.a(printf.o) (__iob)

Allocating common symbols
Common symbol       size              file

uartReadyTx         0x1               /opt/local/avr/sixcode//uart.o
stackem             0x20              gpstest.o
voiceBoxCue         0x1               gpstest.o
Timer0Reg0          0x4               /opt/local/avr/sixcode//timer.o
uartRxBuffer        0x8               /opt/local/avr/sixcode//uart.o
TimerPauseReg       0x4               /opt/local/avr/sixcode//timer.o
Timer2Reg0          0x4               /opt/local/avr/sixcode//timer.o
uartBufferedTx      0x1               /opt/local/avr/sixcode//uart.o
message_sent        0x1               gpstest.o
uartTxBuffer        0x8               /opt/local/avr/sixcode//uart.o
uartRxOverflow      0x2               /opt/local/avr/sixcode//uart.o
__iob               0x6               /opt/local/lib/gcc/avr/4.0.2/../../../../avr/lib/avr5/libc.a(iob.o)

Memory Configuration

Name             Origin             Length             Attributes
text             0x00000000         0x00020000         xr
data             0x00800060         0x0000ffa0         rw !x
eeprom           0x00810000         0x00010000         rw !x
*default*        0x00000000         0xffffffff

Linker script and memory map

LOAD /opt/local/lib/gcc/avr/4.0.2/../../../../avr/lib/avr5/crtm32.o
LOAD /opt/local/avr/sixcode//buffer.o
LOAD /opt/local/avr/sixcode//uart.o
LOAD /opt/local/avr/sixcode//rprintf.o
LOAD /opt/local/avr/sixcode//timer.o
LOAD /opt/local/avr/sixcode//lcd.o
LOAD /opt/local/avr/sixcode//i2c.o
LOAD video.o
LOAD gpstest.o
LOAD /opt/local/lib/gcc/avr/4.0.2/../../../../avr/lib/avr5/libm.a
LOAD /opt/local/lib/gcc/avr/4.0.2/avr5/libgcc.a
LOAD /opt/local/lib/gcc/avr/4.0.2/../../../../avr/lib/avr5/libc.a
LOAD /opt/local/lib/gcc/avr/4.0.2/avr5/libgcc.a

.hash
 *(.hash)

.dynsym
 *(.dynsym)

.dynstr
 *(.dynstr)

.gnu.version
 *(.gnu.version)

.gnu.version_d
 *(.gnu.version_d)

.gnu.version_r
 *(.gnu.version_r)

.rel.init
 *(.rel.init)

.rela.init
 *(.rela.init)

.rel.text
 *(.rel.text)
 *(.rel.text.*)
 *(.rel.gnu.linkonce.t*)

.rela.text
 *(.rela.text)
 *(.rela.text.*)
 *(.rela.gnu.linkonce.t*)

.rel.fini
 *(.rel.fini)

.rela.fini
 *(.rela.fini)

.rel.rodata
 *(.rel.rodata)
 *(.rel.rodata.*)
 *(.rel.gnu.linkonce.r*)

.rela.rodata
 *(.rela.rodata)
 *(.rela.rodata.*)
 *(.rela.gnu.linkonce.r*)

.rel.data
 *(.rel.data)
 *(.rel.data.*)
 *(.rel.gnu.linkonce.d*)

.rela.data
 *(.rela.data)
 *(.rela.data.*)
 *(.rela.gnu.linkonce.d*)

.rel.ctors
 *(.rel.ctors)

.rela.ctors
 *(.rela.ctors)

.rel.dtors
 *(.rel.dtors)

.rela.dtors
 *(.rela.dtors)

.rel.got
 *(.rel.got)

.rela.got
 *(.rela.got)

.rel.bss
 *(.rel.bss)

.rela.bss
 *(.rela.bss)

.rel.plt
 *(.rel.plt)

.rela.plt
 *(.rela.plt)

.text           0x00000000     0x44f2
 *(.vectors)
 .vectors       0x00000000       0x54 /opt/local/lib/gcc/avr/4.0.2/../../../../avr/lib/avr5/crtm32.o
                0x00000000                __vectors
                0x00000000                __vector_default
                0x00000054                __ctors_start = .
 *(.ctors)
                0x00000054                __ctors_end = .
                0x00000054                __dtors_start = .
 *(.dtors)
                0x00000054                __dtors_end = .
 *(.progmem.gcc*)
 .progmem.gcc_fplib
                0x00000054       0x26 /opt/local/lib/gcc/avr/4.0.2/../../../../avr/lib/avr5/libm.a(fp_cosinus.o)
 .progmem.gcc_fplib
                0x0000007a       0x30 /opt/local/lib/gcc/avr/4.0.2/../../../../avr/lib/avr5/libm.a(strtod.o)
 .progmem.gcc_fplib
                0x000000aa       0x26 /opt/local/lib/gcc/avr/4.0.2/../../../../avr/lib/avr5/libm.a(atan.o)
 *(.progmem*)
 .progmem.data  0x000000d0       0x11 /opt/local/avr/sixcode//rprintf.o
 .progmem.data  0x000000e1       0x1c /opt/local/avr/sixcode//timer.o
                0x000000e1                TimerRTCPrescaleFactor
                0x000000f1                TimerPrescaleFactor
 .progmem.data  0x000000fd       0x88 /opt/local/avr/sixcode//lcd.o
                0x000000fd                LcdCustomChar
 .progmem.data  0x00000185       0x77 video.o
 .progmem.data  0x000001fc      0x22f gpstest.o
                0x0000042c                . = ALIGN (0x2)
 *fill*         0x0000042b        0x1 00
 *(.init0)
 *(.init1)
 *(.init2)
 .init2         0x0000042c        0xc /opt/local/lib/gcc/avr/4.0.2/../../../../avr/lib/avr5/crtm32.o
 *(.init3)
 *(.init4)
 .init4         0x00000438       0x16 /opt/local/lib/gcc/avr/4.0.2/avr5/libgcc.a(_copy_data.o)
                0x00000438                __do_copy_data
 .init4         0x0000044e       0x10 /opt/local/lib/gcc/avr/4.0.2/avr5/libgcc.a(_clear_bss.o)
                0x0000044e                __do_clear_bss
 *(.init5)
 *(.init6)
 *(.init7)
 *(.init8)
 *(.init9)
 .init9         0x0000045e        0x4 /opt/local/lib/gcc/avr/4.0.2/../../../../avr/lib/avr5/crtm32.o
 *(.text)
 .text          0x00000462        0x4 /opt/local/lib/gcc/avr/4.0.2/../../../../avr/lib/avr5/crtm32.o
                0x00000462                __vector_1
                0x00000462                __vector_12
                0x00000462                __bad_interrupt
                0x00000462                __vector_3
                0x00000462                __vector_17
                0x00000462                __vector_2
                0x00000462                __vector_14
                0x00000462                __vector_16
                0x00000462                __vector_18
                0x00000462                __vector_20
 .text          0x00000466      0x15a /opt/local/avr/sixcode//buffer.o
                0x0000059c                bufferIsNotFull
                0x00000480                bufferGetFromFront
                0x00000520                bufferGetAtIndex
                0x000004dc                bufferDumpFromFront
                0x00000466                bufferInit
                0x0000054a                bufferAddToEnd
                0x000005b2                bufferFlush
 .text          0x000005c0      0x260 /opt/local/avr/sixcode//uart.o
                0x00000800                uartSendTxBuffer
                0x0000065e                uartSendByte
                0x000005f4                uartInitBuffers
                0x00000670                uartReceiveByte
                0x00000706                uartAddToTxBuffer
                0x00000648                uartSetRxHandler
                0x00000782                __vector_13
                0x000006e4                uartFlushReceiveBuffer
                0x00000616                uartInit
                0x000006ee                uartReceiveBufferIsEmpty
                0x000005c0                uartSetBaudRate
                0x00000658                uartGetTxBuffer
                0x000006a8                uartGetByte
                0x00000652                uartGetRxBuffer
                0x00000714                __vector_15
 .text          0x00000820      0x590 /opt/local/avr/sixcode//rprintf.o
                0x00000c74                rprintf1RamRom
                0x00000900                rprintfu08
                0x00000930                rprintfu32
                0x0000084e                rprintfStr
                0x00000acc                rprintfFloat
                0x0000086c                rprintfStrLen
                0x000008c2                rprintfProgStr
                0x00000916                rprintfu16
                0x00000820                rprintfInit
                0x0000082a                rprintfChar
                0x000008e2                rprintfCRLF
                0x000008ea                rprintfu04
                0x00000956                rprintfNum
 .text          0x00000db0      0x67c /opt/local/avr/sixcode//timer.o
                0x00000f9a                timer2GetOverflowCount
                0x00000dde                timerDetach
                0x00000e10                timer1SetPrescaler
                0x00001010                timer1PWMBOff
                0x00000e62                timer2GetPrescaler
                0x000012d4                __vector_6
                0x00001388                timer0Init
                0x00001002                timer1PWMAOff
                0x00001040                timer1PWMBSet
                0x00001046                __vector_11
                0x00000fdc                timer1PWMInitICR
                0x00000e36                timer0GetPrescaler
                0x00001220                __vector_7
                0x00000f88                timer0GetOverflowCount
                0x00001146                __vector_5
                0x000013e0                timerInit
                0x00000e1a                timer2SetPrescaler
                0x0000101e                timer1PWMAOn
                0x00000df4                timer0SetPrescaler
                0x00000db0                delay_us
                0x0000132e                __vector_4
                0x00000dfe                timer0ClearOverflowCount
                0x000010ec                __vector_9
                0x000013aa                timer1Init
                0x00000fac                timer1PWMInit
                0x0000102c                timer1PWMBOn
                0x000013be                timer2Init
                0x0000127a                __vector_8
                0x0000103a                timer1PWMASet
                0x00000e78                timerAttach
                0x00001406                timer1PWMOff
                0x000011c6                __vector_10
                0x00000e4c                timer1GetPrescaler
                0x00000e24                timer2ClearOverflowCount
                0x00000e8e                timerPause
 .text          0x0000142c      0x3d8 /opt/local/avr/sixcode//lcd.o
                0x00001756                lcdProgressBar
                0x000015e6                lcdLoadCustomChar
                0x000016f0                lcdHome
                0x00001508                lcdControlRead
                0x0000171e                lcdPrintData
                0x000014ba                lcdControlWrite
                0x00001550                lcdDataWrite
                0x00001662                lcdInit
                0x00001440                lcdBusyWait
                0x0000142c                lcdInitHW
                0x00001700                lcdGotoXY
                0x0000159e                lcdDataRead
                0x000016f8                lcdClear
 .text          0x00001804      0x4c2 /opt/local/avr/sixcode//i2c.o
                0x00001832                i2cInit
                0x00001892                i2cSendStart
                0x000018a6                i2cWaitForComplete
                0x000018d0                i2cGetReceivedByte
                0x000018e6                i2cMasterSend
                0x00001934                i2cMasterReceive
                0x0000198e                i2cMasterSendNI
                0x000019fc                __vector_19
                0x0000187e                i2cSetSlaveReceiveHandler
                0x000018dc                i2cGetState
                0x000018d6                i2cGetStatus
                0x000018ae                i2cSendByte
                0x00001888                i2cSetSlaveTransmitHandler
                0x00001870                i2cSetLocalDeviceAddr
                0x00001c48                i2cMasterReceiveNI
                0x000018ba                i2cReceiveByte
                0x00001804                i2cSetBitrate
                0x0000189c                i2cSendStop
 .text          0x00001cc6      0x224 video.o
                0x00001cc6                initVideo
                0x00001d62                writeVideoScreen
 .text          0x00001eea     0x15e4 gpstest.o
                0x00002728                uartswInitBuffers
                0x00002d1e                getCompass
                0x00002806                uartswSendByte
                0x00002afc                i2cSlaveReceiveService
                0x000032ca                nmeap_addParser
                0x000030e8                nmeap_gpgga
                0x00002800                uartswGetRxBuffer
                0x0000230e                nmeap_parseBuffer
                0x000028c8                uartswRxBitService
                0x00002e42                nmeap_longitude
                0x0000237c                dist
                0x00001eea                nmeap_altitude
                0x00002f18                nmeap_gprmc
                0x00002af0                addToBuffer
                0x00002876                uartswTxBitService
                0x00001f80                nmeap_process
                0x00003356                main
                0x00002d6c                nmeap_latitude
                0x000032a8                nmeap_init
                0x00002a08                sendTextMessage
                0x0000273a                uartswOff
                0x00002d46                setCompassBaud
                0x00002b22                i2cSlaveTransmitService
                0x00001f24                nmeap_tokenize
                0x00002024                nmeap_parse
                0x00002760                uartswSetBaudRate
                0x0000283e                uartswReceiveByte
                0x000027a0                uartswInit
                0x00002a5a                initVoiceBox
                0x00002cfa                print_to_string
                0x00002562                bearing
 .text          0x000034ce       0x5a /opt/local/lib/gcc/avr/4.0.2/../../../../avr/lib/avr5/libc.a(atoi.o)
                0x000034ce                atoi
 .text          0x00003528       0x1c /opt/local/lib/gcc/avr/4.0.2/../../../../avr/lib/avr5/libc.a(strncmp.o)
                0x00003528                strncmp
 .text          0x00003544       0x1e /opt/local/lib/gcc/avr/4.0.2/../../../../avr/lib/avr5/libc.a(strncpy.o)
                0x00003544                strncpy
 .text          0x00003562       0x10 /opt/local/lib/gcc/avr/4.0.2/../../../../avr/lib/avr5/libc.a(mul10.o)
                0x00003562                __mulhi_const_10
 .text          0x00003572       0x44 /opt/local/lib/gcc/avr/4.0.2/../../../../avr/lib/avr5/libc.a(printf.o)
                0x00003572                printf
 .text          0x000035b6      0x5a8 /opt/local/lib/gcc/avr/4.0.2/../../../../avr/lib/avr5/libc.a(vfprintf_std.o)
                0x000035b6                vfprintf
 .text          0x00003b5e       0x12 /opt/local/lib/gcc/avr/4.0.2/../../../../avr/lib/avr5/libc.a(strlen_P.o)
                0x00003b5e                strlen_P
 .text          0x00003b70       0x16 /opt/local/lib/gcc/avr/4.0.2/../../../../avr/lib/avr5/libc.a(strnlen_P.o)
                0x00003b70                strnlen_P
 .text          0x00003b86       0x16 /opt/local/lib/gcc/avr/4.0.2/../../../../avr/lib/avr5/libc.a(strnlen.o)
                0x00003b86                strnlen
 .text          0x00003b9c       0x5a /opt/local/lib/gcc/avr/4.0.2/../../../../avr/lib/avr5/libc.a(fputc.o)
                0x00003b9c                fputc
                0x00003bf6                . = ALIGN (0x2)
 *(.text.*)
 .text.fplib    0x00003bf6        0xa /opt/local/lib/gcc/avr/4.0.2/../../../../avr/lib/avr5/libm.a(addsf3.o)
                0x00003bf6                __subsf3
                0x00003bf8                __addsf3
 .text.fplib    0x00003c00       0x7c /opt/local/lib/gcc/avr/4.0.2/../../../../avr/lib/avr5/libm.a(addsf3x.o)
                0x00003c00                __addsf3x
 .text.fplib    0x00003c7c       0x66 /opt/local/lib/gcc/avr/4.0.2/../../../../avr/lib/avr5/libm.a(atan2.o)
                0x00003c7c                atan2
 .text.fplib    0x00003ce2        0xc /opt/local/lib/gcc/avr/4.0.2/../../../../avr/lib/avr5/libm.a(cos.o)
                0x00003ce2                cos
 .text.fplib    0x00003cee        0x6 /opt/local/lib/gcc/avr/4.0.2/../../../../avr/lib/avr5/libm.a(divsf3.o)
                0x00003cee                __divsf3
 .text.fplib    0x00003cf4       0x86 /opt/local/lib/gcc/avr/4.0.2/../../../../avr/lib/avr5/libm.a(divsf3x.o)
                0x00003cf4                __divsf3x
 .text.fplib    0x00003d7a       0x36 /opt/local/lib/gcc/avr/4.0.2/../../../../avr/lib/avr5/libm.a(fixsfsi.o)
                0x00003d7a                __fixsfsi
                0x00003da0                __fp_lneg
                0x00003d7a                __fixunssfsi
 .text.fplib    0x00003db0       0x18 /opt/local/lib/gcc/avr/4.0.2/../../../../avr/lib/avr5/libm.a(floatsisf.o)
                0x00003db4                __floatsisf
                0x00003db0                __floatunssisf
 .text.fplib    0x00003dc8       0x26 /opt/local/lib/gcc/avr/4.0.2/../../../../avr/lib/avr5/libm.a(fmod.o)
                0x00003dc8                fmod
 .text.fplib    0x00003dee       0x44 /opt/local/lib/gcc/avr/4.0.2/../../../../avr/lib/avr5/libm.a(fp_cmp.o)
                0x00003dee                __lesf2
                0x00003dee                __nesf2
                0x00003df4                __gtsf2
                0x00003dee                __eqsf2
                0x00003dfa                __cmpsf2
                0x00003dee                __ltsf2
                0x00003df4                __gesf2
 .text.fplib    0x00003e32       0x3c /opt/local/lib/gcc/avr/4.0.2/../../../../avr/lib/avr5/libm.a(fp_cosinus.o)
                0x00003e32                __fp_cosinus
 .text.fplib    0x00003e6e       0x3a /opt/local/lib/gcc/avr/4.0.2/../../../../avr/lib/avr5/libm.a(fp_merge.o)
                0x00003e78                __fp_merge
 .text.fplib    0x00003ea8        0x6 /opt/local/lib/gcc/avr/4.0.2/../../../../avr/lib/avr5/libm.a(fp_nan.o)
                0x00003ea8                __fp_nanERANGE
                0x00003ea8                __fp_nan
                0x00003ea8                __fp_nanEDOM
                0x00003ea8                __fp_nanx
 .text.fplib    0x00003eae       0x66 /opt/local/lib/gcc/avr/4.0.2/../../../../avr/lib/avr5/libm.a(fp_powerseries.o)
                0x00003eae                __fp_powerseries
 .text.fplib    0x00003f14       0x52 /opt/local/lib/gcc/avr/4.0.2/../../../../avr/lib/avr5/libm.a(fp_split.o)
                0x00003f14                __fp_split3
                0x00003f1a                __fp_split2
                0x00003f2c                __fp_split1
                0x00003f48                __fp_split_a
 .text.fplib    0x00003f66        0xa /opt/local/lib/gcc/avr/4.0.2/../../../../avr/lib/avr5/libm.a(fp_zero.o)
                0x00003f66                __fp_zero
                0x00003f6c                __fp_zerox
 .text.fplib    0x00003f70       0x60 /opt/local/lib/gcc/avr/4.0.2/../../../../avr/lib/avr5/libm.a(modf.o)
                0x00003f70                modf
 .text.fplib    0x00003fd0        0x6 /opt/local/lib/gcc/avr/4.0.2/../../../../avr/lib/avr5/libm.a(mulsf3.o)
                0x00003fd0                __mulsf3
 .text.fplib    0x00003fd6       0x8a /opt/local/lib/gcc/avr/4.0.2/../../../../avr/lib/avr5/libm.a(mulsf3x.o)
                0x00003fd6                __mulsf3x
 .text.fplib    0x00004060       0x26 /opt/local/lib/gcc/avr/4.0.2/../../../../avr/lib/avr5/libm.a(sin.o)
                0x00004060                sin
 .text.fplib    0x00004086       0x7c /opt/local/lib/gcc/avr/4.0.2/../../../../avr/lib/avr5/libm.a(sqrt.o)
                0x00004086                sqrt
 .text.fplib    0x00004102        0x8 /opt/local/lib/gcc/avr/4.0.2/../../../../avr/lib/avr5/libm.a(square.o)
                0x00004102                square
 .text.fplib    0x0000410a      0x178 /opt/local/lib/gcc/avr/4.0.2/../../../../avr/lib/avr5/libm.a(strtod.o)
                0x0000410e                strtod
                0x0000410a                atof
 .text.fplib    0x00004282       0x5e /opt/local/lib/gcc/avr/4.0.2/../../../../avr/lib/avr5/libm.a(atan.o)
                0x00004282                atan
 .text.fplib    0x000042e0        0xa /opt/local/lib/gcc/avr/4.0.2/../../../../avr/lib/avr5/libm.a(fp_flashconst.o)
                0x000042e0                __fp_flashconst
 .text.fplib    0x000042ea       0x10 /opt/local/lib/gcc/avr/4.0.2/../../../../avr/lib/avr5/libm.a(fp_inverse.o)
                0x000042ea                __fp_inverse
 .text.fplib    0x000042fa       0x24 /opt/local/lib/gcc/avr/4.0.2/../../../../avr/lib/avr5/libm.a(ldexp.o)
                0x000042fa                ldexp
 .text.fplib    0x0000431e        0xa /opt/local/lib/gcc/avr/4.0.2/../../../../avr/lib/avr5/libm.a(fp_m_inf.o)
                0x0000431e                __fp_m_inf
 .text.fplib    0x00004328        0xa /opt/local/lib/gcc/avr/4.0.2/../../../../avr/lib/avr5/libm.a(fp_p_inf.o)
                0x00004328                __fp_p_inf
 .text.libgcc   0x00004332       0x3e /opt/local/lib/gcc/avr/4.0.2/avr5/libgcc.a(_mulsi3.o)
                0x00004332                __mulsi3
 .text.libgcc   0x00004370       0x28 /opt/local/lib/gcc/avr/4.0.2/avr5/libgcc.a(_udivmodhi4.o)
                0x00004370                __udivmodhi4
 .text.libgcc   0x00004398       0x26 /opt/local/lib/gcc/avr/4.0.2/avr5/libgcc.a(_divmodhi4.o)
                0x00004398                __divmodhi4
                0x00004398                _div
 .text.libgcc   0x000043be       0x44 /opt/local/lib/gcc/avr/4.0.2/avr5/libgcc.a(_udivmodsi4.o)
                0x000043be                __udivmodsi4
 .text.libgcc   0x00004402       0x36 /opt/local/lib/gcc/avr/4.0.2/avr5/libgcc.a(_divmodsi4.o)
                0x00004402                __divmodsi4
 .text.libgcc   0x00004438       0x38 /opt/local/lib/gcc/avr/4.0.2/avr5/libgcc.a(_prologue.o)
                0x00004438                __prologue_saves__
 .text.libgcc   0x00004470       0x36 /opt/local/lib/gcc/avr/4.0.2/avr5/libgcc.a(_epilogue.o)
                0x00004470                __epilogue_restores__
 .text.ctype    0x000044a6       0x12 /opt/local/lib/gcc/avr/4.0.2/../../../../avr/lib/avr5/libc.a(isalnum.o)
                0x000044a6                isalnum
 .text.ctype    0x000044b8        0x6 /opt/local/lib/gcc/avr/4.0.2/../../../../avr/lib/avr5/libc.a(cty_isfalse.o)
                0x000044bc                __ctype_istrue
                0x000044b8                __ctype_isfalse
 .text.ctype    0x000044be       0x14 /opt/local/lib/gcc/avr/4.0.2/../../../../avr/lib/avr5/libc.a(isalpha.o)
                0x000044c4                islower
                0x000044be                isupper
                0x000044c2                isalpha
 .text.ctype    0x000044d2        0xc /opt/local/lib/gcc/avr/4.0.2/../../../../avr/lib/avr5/libc.a(isdigit.o)
                0x000044d2                isdigit
 .text.ctype    0x000044de       0x14 /opt/local/lib/gcc/avr/4.0.2/../../../../avr/lib/avr5/libc.a(isxdigit.o)
                0x000044de                isxdigit
                0x000044f2                . = ALIGN (0x2)
 *(.fini9)
 *(.fini8)
 *(.fini7)
 *(.fini6)
 *(.fini5)
 *(.fini4)
 *(.fini3)
 *(.fini2)
 *(.fini1)
 *(.fini0)
                0x000044f2                _etext = .

.data           0x00800060       0x5a load address 0x000044f2
                0x00800060                PROVIDE (__data_start, .)
 *(.data)
 .data          0x00800060        0xd video.o
 .data          0x0080006d       0x4c gpstest.o
                0x0080006d                localBufferLength
                0x0080006e                localBuffer
 *(.gnu.linkonce.d*)
                0x008000ba                . = ALIGN (0x2)
 *fill*         0x008000b9        0x1 00
                0x008000ba                _edata = .
                0x008000ba                PROVIDE (__data_end, .)

.bss            0x008000ba      0x53d
                0x008000ba                PROVIDE (__bss_start, .)
 *(.bss)
 .bss           0x008000ba       0xc2 /opt/local/avr/sixcode//uart.o
 .bss           0x0080017c        0x2 /opt/local/avr/sixcode//rprintf.o
 .bss           0x0080017e       0x10 /opt/local/avr/sixcode//timer.o
 .bss           0x0080018e       0x4b /opt/local/avr/sixcode//i2c.o
 .bss           0x008001d9      0x3d6 gpstest.o
                0x008001d9                stackem_pointer
 *(COMMON)
 COMMON         0x008005af       0x14 /opt/local/avr/sixcode//uart.o
                0x008005af                uartReadyTx
                0x008005b0                uartRxBuffer
                0x008005b8                uartBufferedTx
                0x008005b9                uartTxBuffer
                0x008005c1                uartRxOverflow
 COMMON         0x008005c3        0xc /opt/local/avr/sixcode//timer.o
                0x008005c3                Timer0Reg0
                0x008005c7                TimerPauseReg
                0x008005cb                Timer2Reg0
 COMMON         0x008005cf       0x22 gpstest.o
                0x008005cf                stackem
                0x008005ef                voiceBoxCue
                0x008005f0                message_sent
 COMMON         0x008005f1        0x6 /opt/local/lib/gcc/avr/4.0.2/../../../../avr/lib/avr5/libc.a(iob.o)
                0x008005f1                __iob
                0x008005f7                PROVIDE (__bss_end, .)
                0x000044f2                __data_load_start = LOADADDR (.data)
                0x0000454c                __data_load_end = (__data_load_start + SIZEOF (.data))

.noinit         0x008005f7        0x0
                0x008005f7                PROVIDE (__noinit_start, .)
 *(.noinit*)
                0x008005f7                PROVIDE (__noinit_end, .)
                0x008005f7                _end = .
                0x008005f7                PROVIDE (__heap_start, .)

.eeprom         0x00810000        0x0
 *(.eeprom*)
                0x00810000                __eeprom_end = .

.stab           0x00000000     0xb340
 *(.stab)
 .stab          0x00000000      0x36c /opt/local/lib/gcc/avr/4.0.2/../../../../avr/lib/avr5/crtm32.o
 .stab          0x0000036c      0x918 /opt/local/avr/sixcode//buffer.o
                                0x924 (size before relaxing)
 .stab          0x00000c84      0x840 /opt/local/avr/sixcode//uart.o
                                0xb04 (size before relaxing)
 .stab          0x000014c4      0xbc4 /opt/local/avr/sixcode//rprintf.o
                                0xe4c (size before relaxing)
 .stab          0x00002088      0xff0 /opt/local/avr/sixcode//timer.o
                               0x1338 (size before relaxing)
 .stab          0x00003078      0xaf8 /opt/local/avr/sixcode//lcd.o
                                0xe40 (size before relaxing)
 .stab          0x00003b70      0xdd4 /opt/local/avr/sixcode//i2c.o
                               0x1140 (size before relaxing)
 .stab          0x00004944      0x318 video.o
                                0x660 (size before relaxing)
 .stab          0x00004c5c     0x1f68 gpstest.o
                               0x2310 (size before relaxing)
 .stab          0x00006bc4       0x78 /opt/local/lib/gcc/avr/4.0.2/../../../../avr/lib/avr5/libm.a(addsf3.o)
                                 0x84 (size before relaxing)
 .stab          0x00006c3c      0x324 /opt/local/lib/gcc/avr/4.0.2/../../../../avr/lib/avr5/libm.a(addsf3x.o)
                                0x330 (size before relaxing)
 .stab          0x00006f60      0x1e0 /opt/local/lib/gcc/avr/4.0.2/../../../../avr/lib/avr5/libm.a(atan2.o)
                                0x1ec (size before relaxing)
 .stab          0x00007140       0x84 /opt/local/lib/gcc/avr/4.0.2/../../../../avr/lib/avr5/libm.a(cos.o)
                                 0x90 (size before relaxing)
 .stab          0x000071c4       0x60 /opt/local/lib/gcc/avr/4.0.2/../../../../avr/lib/avr5/libm.a(divsf3.o)
                                 0x6c (size before relaxing)
 .stab          0x00007224      0x360 /opt/local/lib/gcc/avr/4.0.2/../../../../avr/lib/avr5/libm.a(divsf3x.o)
                                0x36c (size before relaxing)
 .stab          0x00007584      0x180 /opt/local/lib/gcc/avr/4.0.2/../../../../avr/lib/avr5/libm.a(fixsfsi.o)
                                0x18c (size before relaxing)
 .stab          0x00007704       0xcc /opt/local/lib/gcc/avr/4.0.2/../../../../avr/lib/avr5/libm.a(floatsisf.o)
                                 0xd8 (size before relaxing)
 .stab          0x000077d0      0x120 /opt/local/lib/gcc/avr/4.0.2/../../../../avr/lib/avr5/libm.a(fmod.o)
                                0x12c (size before relaxing)
 .stab          0x000078f0      0x21c /opt/local/lib/gcc/avr/4.0.2/../../../../avr/lib/avr5/libm.a(fp_cmp.o)
                                0x228 (size before relaxing)
 .stab          0x00007b0c      0x1a4 /opt/local/lib/gcc/avr/4.0.2/../../../../avr/lib/avr5/libm.a(fp_cosinus.o)
                                0x1b0 (size before relaxing)
 .stab          0x00007cb0      0x198 /opt/local/lib/gcc/avr/4.0.2/../../../../avr/lib/avr5/libm.a(fp_merge.o)
                                0x1a4 (size before relaxing)
 .stab          0x00007e48       0x60 /opt/local/lib/gcc/avr/4.0.2/../../../../avr/lib/avr5/libm.a(fp_nan.o)
                                 0x6c (size before relaxing)
 .stab          0x00007ea8      0x27c /opt/local/lib/gcc/avr/4.0.2/../../../../avr/lib/avr5/libm.a(fp_powerseries.o)
                                0x288 (size before relaxing)
 .stab          0x00008124      0x240 /opt/local/lib/gcc/avr/4.0.2/../../../../avr/lib/avr5/libm.a(fp_split.o)
                                0x24c (size before relaxing)
 .stab          0x00008364       0x78 /opt/local/lib/gcc/avr/4.0.2/../../../../avr/lib/avr5/libm.a(fp_zero.o)
                                 0x84 (size before relaxing)
 .stab          0x000083dc      0x27c /opt/local/lib/gcc/avr/4.0.2/../../../../avr/lib/avr5/libm.a(modf.o)
                                0x288 (size before relaxing)
 .stab          0x00008658       0x60 /opt/local/lib/gcc/avr/4.0.2/../../../../avr/lib/avr5/libm.a(mulsf3.o)
                                 0x6c (size before relaxing)
 .stab          0x000086b8      0x378 /opt/local/lib/gcc/avr/4.0.2/../../../../avr/lib/avr5/libm.a(mulsf3x.o)
                                0x384 (size before relaxing)
 .stab          0x00008a30      0x120 /opt/local/lib/gcc/avr/4.0.2/../../../../avr/lib/avr5/libm.a(sin.o)
                                0x12c (size before relaxing)
 .stab          0x00008b50      0x30c /opt/local/lib/gcc/avr/4.0.2/../../../../avr/lib/avr5/libm.a(sqrt.o)
                                0x318 (size before relaxing)
 .stab          0x00008e5c       0x60 /opt/local/lib/gcc/avr/4.0.2/../../../../avr/lib/avr5/libm.a(square.o)
                                 0x6c (size before relaxing)
 .stab          0x00008ebc      0x8f4 /opt/local/lib/gcc/avr/4.0.2/../../../../avr/lib/avr5/libm.a(strtod.o)
                                0x900 (size before relaxing)
 .stab          0x000097b0      0x1d4 /opt/local/lib/gcc/avr/4.0.2/../../../../avr/lib/avr5/libm.a(atan.o)
                                0x1e0 (size before relaxing)
 .stab          0x00009984       0x78 /opt/local/lib/gcc/avr/4.0.2/../../../../avr/lib/avr5/libm.a(fp_flashconst.o)
                                 0x84 (size before relaxing)
 .stab          0x000099fc       0x90 /opt/local/lib/gcc/avr/4.0.2/../../../../avr/lib/avr5/libm.a(fp_inverse.o)
                                 0x9c (size before relaxing)
 .stab          0x00009a8c      0x114 /opt/local/lib/gcc/avr/4.0.2/../../../../avr/lib/avr5/libm.a(ldexp.o)
                                0x120 (size before relaxing)
 .stab          0x00009ba0       0x78 /opt/local/lib/gcc/avr/4.0.2/../../../../avr/lib/avr5/libm.a(fp_m_inf.o)
                                 0x84 (size before relaxing)
 .stab          0x00009c18       0x78 /opt/local/lib/gcc/avr/4.0.2/../../../../avr/lib/avr5/libm.a(fp_p_inf.o)
                                 0x84 (size before relaxing)
 .stab          0x00009c90      0x228 /opt/local/lib/gcc/avr/4.0.2/../../../../avr/lib/avr5/libc.a(atoi.o)
                                0x234 (size before relaxing)
 .stab          0x00009eb8       0xa8 /opt/local/lib/gcc/avr/4.0.2/../../../../avr/lib/avr5/libc.a(isalnum.o)
                                 0xb4 (size before relaxing)
 .stab          0x00009f60       0x60 /opt/local/lib/gcc/avr/4.0.2/../../../../avr/lib/avr5/libc.a(cty_isfalse.o)
                                 0x6c (size before relaxing)
 .stab          0x00009fc0       0xb4 /opt/local/lib/gcc/avr/4.0.2/../../../../avr/lib/avr5/libc.a(isalpha.o)
                                 0xc0 (size before relaxing)
 .stab          0x0000a074       0x84 /opt/local/lib/gcc/avr/4.0.2/../../../../avr/lib/avr5/libc.a(isdigit.o)
                                 0x90 (size before relaxing)
 .stab          0x0000a0f8       0xb4 /opt/local/lib/gcc/avr/4.0.2/../../../../avr/lib/avr5/libc.a(isxdigit.o)
                                 0xc0 (size before relaxing)
 .stab          0x0000a1ac       0xc0 /opt/local/lib/gcc/avr/4.0.2/../../../../avr/lib/avr5/libc.a(strncmp.o)
                                 0xcc (size before relaxing)
 .stab          0x0000a26c       0xcc /opt/local/lib/gcc/avr/4.0.2/../../../../avr/lib/avr5/libc.a(strncpy.o)
                                 0xd8 (size before relaxing)
 .stab          0x0000a338       0x78 /opt/local/lib/gcc/avr/4.0.2/../../../../avr/lib/avr5/libc.a(mul10.o)
                                 0x84 (size before relaxing)
 .stab          0x0000a3b0      0x348 /opt/local/lib/gcc/avr/4.0.2/../../../../avr/lib/avr5/libc.a(printf.o)
                                0x390 (size before relaxing)
 .stab          0x0000a6f8      0x798 /opt/local/lib/gcc/avr/4.0.2/../../../../avr/lib/avr5/libc.a(vfprintf_std.o)
                                0x990 (size before relaxing)
 .stab          0x0000ae90       0x84 /opt/local/lib/gcc/avr/4.0.2/../../../../avr/lib/avr5/libc.a(strlen_P.o)
                                 0x90 (size before relaxing)
 .stab          0x0000af14       0x9c /opt/local/lib/gcc/avr/4.0.2/../../../../avr/lib/avr5/libc.a(strnlen_P.o)
                                 0xa8 (size before relaxing)
 .stab          0x0000afb0       0x9c /opt/local/lib/gcc/avr/4.0.2/../../../../avr/lib/avr5/libc.a(strnlen.o)
                                 0xa8 (size before relaxing)
 .stab          0x0000b04c      0x1d4 /opt/local/lib/gcc/avr/4.0.2/../../../../avr/lib/avr5/libc.a(fputc.o)
                                0x3b4 (size before relaxing)
 .stab          0x0000b220      0x120 /opt/local/lib/gcc/avr/4.0.2/../../../../avr/lib/avr5/libc.a(iob.o)
                                0x300 (size before relaxing)

.stabstr        0x00000000     0x4253
 *(.stabstr)
 .stabstr       0x00000000     0x4253 /opt/local/lib/gcc/avr/4.0.2/../../../../avr/lib/avr5/crtm32.o

.stab.excl
 *(.stab.excl)

.stab.exclstr
 *(.stab.exclstr)

.stab.index
 *(.stab.index)

.stab.indexstr
 *(.stab.indexstr)

.comment
 *(.comment)

.debug
 *(.debug)

.line
 *(.line)

.debug_srcinfo
 *(.debug_srcinfo)

.debug_sfnames
 *(.debug_sfnames)

.debug_aranges
 *(.debug_aranges)

.debug_pubnames
 *(.debug_pubnames)

.debug_info
 *(.debug_info)
 *(.gnu.linkonce.wi.*)

.debug_abbrev
 *(.debug_abbrev)

.debug_line
 *(.debug_line)

.debug_frame
 *(.debug_frame)

.debug_str
 *(.debug_str)

.debug_loc
 *(.debug_loc)

.debug_macinfo
 *(.debug_macinfo)
OUTPUT(gpstest.elf elf32-avr)

Cross Reference Table

Symbol                                            File
LcdCustomChar                                     /opt/local/avr/sixcode//lcd.o
Timer0Reg0                                        /opt/local/avr/sixcode//timer.o
Timer2Reg0                                        /opt/local/avr/sixcode//timer.o
TimerPauseReg                                     /opt/local/avr/sixcode//timer.o
TimerPrescaleFactor                               /opt/local/avr/sixcode//timer.o
TimerRTCPrescaleFactor                            /opt/local/avr/sixcode//timer.o
__addsf3                                          /opt/local/lib/gcc/avr/4.0.2/../../../../avr/lib/avr5/libm.a(addsf3.o)
                                                  /opt/local/lib/gcc/avr/4.0.2/../../../../avr/lib/avr5/libm.a(atan.o)
                                                  /opt/local/lib/gcc/avr/4.0.2/../../../../avr/lib/avr5/libm.a(sqrt.o)
                                                  /opt/local/lib/gcc/avr/4.0.2/../../../../avr/lib/avr5/libm.a(sin.o)
                                                  /opt/local/lib/gcc/avr/4.0.2/../../../../avr/lib/avr5/libm.a(modf.o)
                                                  /opt/local/lib/gcc/avr/4.0.2/../../../../avr/lib/avr5/libm.a(fp_powerseries.o)
                                                  /opt/local/lib/gcc/avr/4.0.2/../../../../avr/lib/avr5/libm.a(fp_cosinus.o)
                                                  /opt/local/lib/gcc/avr/4.0.2/../../../../avr/lib/avr5/libm.a(atan2.o)
                                                  gpstest.o
__addsf3x                                         /opt/local/lib/gcc/avr/4.0.2/../../../../avr/lib/avr5/libm.a(addsf3x.o)
                                                  /opt/local/lib/gcc/avr/4.0.2/../../../../avr/lib/avr5/libm.a(addsf3.o)
__bad_interrupt                                   /opt/local/lib/gcc/avr/4.0.2/../../../../avr/lib/avr5/crtm32.o
__bss_end                                         /opt/local/lib/gcc/avr/4.0.2/avr5/libgcc.a(_clear_bss.o)
__bss_start                                       /opt/local/lib/gcc/avr/4.0.2/avr5/libgcc.a(_clear_bss.o)
__cmpsf2                                          /opt/local/lib/gcc/avr/4.0.2/../../../../avr/lib/avr5/libm.a(fp_cmp.o)
__ctype_isfalse                                   /opt/local/lib/gcc/avr/4.0.2/../../../../avr/lib/avr5/libc.a(cty_isfalse.o)
                                                  /opt/local/lib/gcc/avr/4.0.2/../../../../avr/lib/avr5/libc.a(isxdigit.o)
                                                  /opt/local/lib/gcc/avr/4.0.2/../../../../avr/lib/avr5/libc.a(isdigit.o)
                                                  /opt/local/lib/gcc/avr/4.0.2/../../../../avr/lib/avr5/libc.a(isalpha.o)
                                                  /opt/local/lib/gcc/avr/4.0.2/../../../../avr/lib/avr5/libc.a(isalnum.o)
__ctype_istrue                                    /opt/local/lib/gcc/avr/4.0.2/../../../../avr/lib/avr5/libc.a(cty_isfalse.o)
__data_end                                        /opt/local/lib/gcc/avr/4.0.2/avr5/libgcc.a(_copy_data.o)
__data_load_start                                 /opt/local/lib/gcc/avr/4.0.2/avr5/libgcc.a(_copy_data.o)
__data_start                                      /opt/local/lib/gcc/avr/4.0.2/avr5/libgcc.a(_copy_data.o)
__divmodhi4                                       /opt/local/lib/gcc/avr/4.0.2/avr5/libgcc.a(_divmodhi4.o)
                                                  /opt/local/avr/sixcode//i2c.o
__divmodsi4                                       /opt/local/lib/gcc/avr/4.0.2/avr5/libgcc.a(_divmodsi4.o)
                                                  /opt/local/avr/sixcode//i2c.o
                                                  /opt/local/avr/sixcode//timer.o
__divsf3                                          /opt/local/lib/gcc/avr/4.0.2/../../../../avr/lib/avr5/libm.a(divsf3.o)
                                                  /opt/local/lib/gcc/avr/4.0.2/../../../../avr/lib/avr5/libm.a(fp_inverse.o)
                                                  /opt/local/lib/gcc/avr/4.0.2/../../../../avr/lib/avr5/libm.a(sqrt.o)
                                                  /opt/local/lib/gcc/avr/4.0.2/../../../../avr/lib/avr5/libm.a(fp_powerseries.o)
                                                  /opt/local/lib/gcc/avr/4.0.2/../../../../avr/lib/avr5/libm.a(fmod.o)
                                                  /opt/local/lib/gcc/avr/4.0.2/../../../../avr/lib/avr5/libm.a(atan2.o)
                                                  gpstest.o
                                                  /opt/local/avr/sixcode//rprintf.o
__divsf3x                                         /opt/local/lib/gcc/avr/4.0.2/../../../../avr/lib/avr5/libm.a(divsf3x.o)
                                                  /opt/local/lib/gcc/avr/4.0.2/../../../../avr/lib/avr5/libm.a(divsf3.o)
__do_clear_bss                                    /opt/local/lib/gcc/avr/4.0.2/avr5/libgcc.a(_clear_bss.o)
                                                  /opt/local/lib/gcc/avr/4.0.2/../../../../avr/lib/avr5/libc.a(iob.o)
                                                  /opt/local/lib/gcc/avr/4.0.2/../../../../avr/lib/avr5/libc.a(fputc.o)
                                                  /opt/local/lib/gcc/avr/4.0.2/../../../../avr/lib/avr5/libc.a(vfprintf_std.o)
                                                  /opt/local/lib/gcc/avr/4.0.2/../../../../avr/lib/avr5/libc.a(printf.o)
                                                  gpstest.o
                                                  video.o
                                                  /opt/local/avr/sixcode//i2c.o
                                                  /opt/local/avr/sixcode//lcd.o
                                                  /opt/local/avr/sixcode//timer.o
                                                  /opt/local/avr/sixcode//rprintf.o
                                                  /opt/local/avr/sixcode//uart.o
                                                  /opt/local/avr/sixcode//buffer.o
__do_copy_data                                    /opt/local/lib/gcc/avr/4.0.2/avr5/libgcc.a(_copy_data.o)
                                                  /opt/local/lib/gcc/avr/4.0.2/../../../../avr/lib/avr5/libc.a(iob.o)
                                                  /opt/local/lib/gcc/avr/4.0.2/../../../../avr/lib/avr5/libc.a(fputc.o)
                                                  /opt/local/lib/gcc/avr/4.0.2/../../../../avr/lib/avr5/libc.a(vfprintf_std.o)
                                                  /opt/local/lib/gcc/avr/4.0.2/../../../../avr/lib/avr5/libc.a(printf.o)
                                                  gpstest.o
                                                  video.o
                                                  /opt/local/avr/sixcode//i2c.o
                                                  /opt/local/avr/sixcode//lcd.o
                                                  /opt/local/avr/sixcode//timer.o
                                                  /opt/local/avr/sixcode//rprintf.o
                                                  /opt/local/avr/sixcode//uart.o
                                                  /opt/local/avr/sixcode//buffer.o
__epilogue_restores__                             /opt/local/lib/gcc/avr/4.0.2/avr5/libgcc.a(_epilogue.o)
                                                  /opt/local/lib/gcc/avr/4.0.2/../../../../avr/lib/avr5/libm.a(strtod.o)
__eqsf2                                           /opt/local/lib/gcc/avr/4.0.2/../../../../avr/lib/avr5/libm.a(fp_cmp.o)
                                                  /opt/local/avr/sixcode//rprintf.o
__fixsfsi                                         /opt/local/lib/gcc/avr/4.0.2/../../../../avr/lib/avr5/libm.a(fixsfsi.o)
                                                  /opt/local/lib/gcc/avr/4.0.2/../../../../avr/lib/avr5/libm.a(modf.o)
                                                  gpstest.o
__fixunssfsi                                      /opt/local/lib/gcc/avr/4.0.2/../../../../avr/lib/avr5/libm.a(fixsfsi.o)
                                                  /opt/local/avr/sixcode//rprintf.o
__floatsisf                                       /opt/local/lib/gcc/avr/4.0.2/../../../../avr/lib/avr5/libm.a(floatsisf.o)
                                                  /opt/local/lib/gcc/avr/4.0.2/../../../../avr/lib/avr5/libm.a(modf.o)
                                                  gpstest.o
                                                  /opt/local/avr/sixcode//rprintf.o
__floatunssisf                                    /opt/local/lib/gcc/avr/4.0.2/../../../../avr/lib/avr5/libm.a(floatsisf.o)
                                                  /opt/local/lib/gcc/avr/4.0.2/../../../../avr/lib/avr5/libm.a(strtod.o)
__fp_cosinus                                      /opt/local/lib/gcc/avr/4.0.2/../../../../avr/lib/avr5/libm.a(fp_cosinus.o)
                                                  /opt/local/lib/gcc/avr/4.0.2/../../../../avr/lib/avr5/libm.a(sin.o)
                                                  /opt/local/lib/gcc/avr/4.0.2/../../../../avr/lib/avr5/libm.a(cos.o)
__fp_flashconst                                   /opt/local/lib/gcc/avr/4.0.2/../../../../avr/lib/avr5/libm.a(fp_flashconst.o)
                                                  /opt/local/lib/gcc/avr/4.0.2/../../../../avr/lib/avr5/libm.a(strtod.o)
                                                  /opt/local/lib/gcc/avr/4.0.2/../../../../avr/lib/avr5/libm.a(fp_powerseries.o)
__fp_inverse                                      /opt/local/lib/gcc/avr/4.0.2/../../../../avr/lib/avr5/libm.a(fp_inverse.o)
                                                  /opt/local/lib/gcc/avr/4.0.2/../../../../avr/lib/avr5/libm.a(atan.o)
__fp_lneg                                         /opt/local/lib/gcc/avr/4.0.2/../../../../avr/lib/avr5/libm.a(fixsfsi.o)
                                                  /opt/local/lib/gcc/avr/4.0.2/../../../../avr/lib/avr5/libm.a(floatsisf.o)
__fp_m_inf                                        /opt/local/lib/gcc/avr/4.0.2/../../../../avr/lib/avr5/libm.a(fp_m_inf.o)
                                                  /opt/local/lib/gcc/avr/4.0.2/../../../../avr/lib/avr5/libm.a(ldexp.o)
__fp_merge                                        /opt/local/lib/gcc/avr/4.0.2/../../../../avr/lib/avr5/libm.a(fp_merge.o)
                                                  /opt/local/lib/gcc/avr/4.0.2/../../../../avr/lib/avr5/libm.a(ldexp.o)
                                                  /opt/local/lib/gcc/avr/4.0.2/../../../../avr/lib/avr5/libm.a(sqrt.o)
                                                  /opt/local/lib/gcc/avr/4.0.2/../../../../avr/lib/avr5/libm.a(mulsf3.o)
                                                  /opt/local/lib/gcc/avr/4.0.2/../../../../avr/lib/avr5/libm.a(modf.o)
                                                  /opt/local/lib/gcc/avr/4.0.2/../../../../avr/lib/avr5/libm.a(floatsisf.o)
                                                  /opt/local/lib/gcc/avr/4.0.2/../../../../avr/lib/avr5/libm.a(divsf3.o)
                                                  /opt/local/lib/gcc/avr/4.0.2/../../../../avr/lib/avr5/libm.a(addsf3.o)
__fp_nan                                          /opt/local/lib/gcc/avr/4.0.2/../../../../avr/lib/avr5/libm.a(fp_nan.o)
                                                  /opt/local/lib/gcc/avr/4.0.2/../../../../avr/lib/avr5/libm.a(fp_split.o)
__fp_nanEDOM                                      /opt/local/lib/gcc/avr/4.0.2/../../../../avr/lib/avr5/libm.a(fp_nan.o)
                                                  /opt/local/lib/gcc/avr/4.0.2/../../../../avr/lib/avr5/libm.a(sqrt.o)
__fp_nanERANGE                                    /opt/local/lib/gcc/avr/4.0.2/../../../../avr/lib/avr5/libm.a(fp_nan.o)
                                                  /opt/local/lib/gcc/avr/4.0.2/../../../../avr/lib/avr5/libm.a(fmod.o)
                                                  /opt/local/lib/gcc/avr/4.0.2/../../../../avr/lib/avr5/libm.a(atan2.o)
__fp_nanx                                         /opt/local/lib/gcc/avr/4.0.2/../../../../avr/lib/avr5/libm.a(fp_nan.o)
                                                  /opt/local/lib/gcc/avr/4.0.2/../../../../avr/lib/avr5/libm.a(mulsf3x.o)
                                                  /opt/local/lib/gcc/avr/4.0.2/../../../../avr/lib/avr5/libm.a(divsf3x.o)
__fp_p_inf                                        /opt/local/lib/gcc/avr/4.0.2/../../../../avr/lib/avr5/libm.a(fp_p_inf.o)
                                                  /opt/local/lib/gcc/avr/4.0.2/../../../../avr/lib/avr5/libm.a(ldexp.o)
__fp_powerseries                                  /opt/local/lib/gcc/avr/4.0.2/../../../../avr/lib/avr5/libm.a(fp_powerseries.o)
                                                  /opt/local/lib/gcc/avr/4.0.2/../../../../avr/lib/avr5/libm.a(atan.o)
                                                  /opt/local/lib/gcc/avr/4.0.2/../../../../avr/lib/avr5/libm.a(fp_cosinus.o)
__fp_split1                                       /opt/local/lib/gcc/avr/4.0.2/../../../../avr/lib/avr5/libm.a(fp_split.o)
                                                  /opt/local/lib/gcc/avr/4.0.2/../../../../avr/lib/avr5/libm.a(fixsfsi.o)
__fp_split2                                       /opt/local/lib/gcc/avr/4.0.2/../../../../avr/lib/avr5/libm.a(fp_split.o)
                                                  /opt/local/lib/gcc/avr/4.0.2/../../../../avr/lib/avr5/libm.a(fp_cmp.o)
__fp_split3                                       /opt/local/lib/gcc/avr/4.0.2/../../../../avr/lib/avr5/libm.a(fp_split.o)
                                                  /opt/local/lib/gcc/avr/4.0.2/../../../../avr/lib/avr5/libm.a(mulsf3.o)
                                                  /opt/local/lib/gcc/avr/4.0.2/../../../../avr/lib/avr5/libm.a(divsf3.o)
                                                  /opt/local/lib/gcc/avr/4.0.2/../../../../avr/lib/avr5/libm.a(addsf3.o)
__fp_split_a                                      /opt/local/lib/gcc/avr/4.0.2/../../../../avr/lib/avr5/libm.a(fp_split.o)
                                                  /opt/local/lib/gcc/avr/4.0.2/../../../../avr/lib/avr5/libm.a(ldexp.o)
                                                  /opt/local/lib/gcc/avr/4.0.2/../../../../avr/lib/avr5/libm.a(sqrt.o)
                                                  /opt/local/lib/gcc/avr/4.0.2/../../../../avr/lib/avr5/libm.a(modf.o)
__fp_zero                                         /opt/local/lib/gcc/avr/4.0.2/../../../../avr/lib/avr5/libm.a(fp_zero.o)
                                                  /opt/local/lib/gcc/avr/4.0.2/../../../../avr/lib/avr5/libm.a(ldexp.o)
                                                  /opt/local/lib/gcc/avr/4.0.2/../../../../avr/lib/avr5/libm.a(strtod.o)
                                                  /opt/local/lib/gcc/avr/4.0.2/../../../../avr/lib/avr5/libm.a(fp_merge.o)
                                                  /opt/local/lib/gcc/avr/4.0.2/../../../../avr/lib/avr5/libm.a(fixsfsi.o)
__fp_zerox                                        /opt/local/lib/gcc/avr/4.0.2/../../../../avr/lib/avr5/libm.a(fp_zero.o)
                                                  /opt/local/lib/gcc/avr/4.0.2/../../../../avr/lib/avr5/libm.a(mulsf3x.o)
                                                  /opt/local/lib/gcc/avr/4.0.2/../../../../avr/lib/avr5/libm.a(divsf3x.o)
                                                  /opt/local/lib/gcc/avr/4.0.2/../../../../avr/lib/avr5/libm.a(addsf3x.o)
__gesf2                                           /opt/local/lib/gcc/avr/4.0.2/../../../../avr/lib/avr5/libm.a(fp_cmp.o)
__gtsf2                                           /opt/local/lib/gcc/avr/4.0.2/../../../../avr/lib/avr5/libm.a(fp_cmp.o)
                                                  /opt/local/avr/sixcode//rprintf.o
__heap_end                                        /opt/local/lib/gcc/avr/4.0.2/../../../../avr/lib/avr5/crtm32.o
__init                                            /opt/local/lib/gcc/avr/4.0.2/../../../../avr/lib/avr5/crtm32.o
__iob                                             /opt/local/lib/gcc/avr/4.0.2/../../../../avr/lib/avr5/libc.a(iob.o)
                                                  /opt/local/lib/gcc/avr/4.0.2/../../../../avr/lib/avr5/libc.a(printf.o)
__lesf2                                           /opt/local/lib/gcc/avr/4.0.2/../../../../avr/lib/avr5/libm.a(fp_cmp.o)
__ltsf2                                           /opt/local/lib/gcc/avr/4.0.2/../../../../avr/lib/avr5/libm.a(fp_cmp.o)
                                                  /opt/local/avr/sixcode//rprintf.o
__mulhi_const_10                                  /opt/local/lib/gcc/avr/4.0.2/../../../../avr/lib/avr5/libc.a(mul10.o)
                                                  /opt/local/lib/gcc/avr/4.0.2/../../../../avr/lib/avr5/libc.a(atoi.o)
                                                  /opt/local/lib/gcc/avr/4.0.2/../../../../avr/lib/avr5/libm.a(strtod.o)
__mulsf3                                          /opt/local/lib/gcc/avr/4.0.2/../../../../avr/lib/avr5/libm.a(mulsf3.o)
                                                  /opt/local/lib/gcc/avr/4.0.2/../../../../avr/lib/avr5/libm.a(atan.o)
                                                  /opt/local/lib/gcc/avr/4.0.2/../../../../avr/lib/avr5/libm.a(strtod.o)
                                                  /opt/local/lib/gcc/avr/4.0.2/../../../../avr/lib/avr5/libm.a(square.o)
                                                  /opt/local/lib/gcc/avr/4.0.2/../../../../avr/lib/avr5/libm.a(fp_powerseries.o)
                                                  /opt/local/lib/gcc/avr/4.0.2/../../../../avr/lib/avr5/libm.a(fmod.o)
                                                  gpstest.o
                                                  /opt/local/avr/sixcode//rprintf.o
__mulsf3x                                         /opt/local/lib/gcc/avr/4.0.2/../../../../avr/lib/avr5/libm.a(mulsf3x.o)
                                                  /opt/local/lib/gcc/avr/4.0.2/../../../../avr/lib/avr5/libm.a(mulsf3.o)
__mulsi3                                          /opt/local/lib/gcc/avr/4.0.2/avr5/libgcc.a(_mulsi3.o)
                                                  /opt/local/lib/gcc/avr/4.0.2/../../../../avr/lib/avr5/libm.a(strtod.o)
                                                  /opt/local/avr/sixcode//timer.o
__nesf2                                           /opt/local/lib/gcc/avr/4.0.2/../../../../avr/lib/avr5/libm.a(fp_cmp.o)
__prologue_saves__                                /opt/local/lib/gcc/avr/4.0.2/avr5/libgcc.a(_prologue.o)
                                                  /opt/local/lib/gcc/avr/4.0.2/../../../../avr/lib/avr5/libm.a(strtod.o)
__stack                                           /opt/local/lib/gcc/avr/4.0.2/../../../../avr/lib/avr5/crtm32.o
                                                  gpstest.o
__subsf3                                          /opt/local/lib/gcc/avr/4.0.2/../../../../avr/lib/avr5/libm.a(addsf3.o)
                                                  gpstest.o
                                                  /opt/local/avr/sixcode//rprintf.o
__udivmodhi4                                      /opt/local/lib/gcc/avr/4.0.2/avr5/libgcc.a(_udivmodhi4.o)
                                                  /opt/local/lib/gcc/avr/4.0.2/avr5/libgcc.a(_divmodhi4.o)
                                                  /opt/local/avr/sixcode//lcd.o
                                                  /opt/local/avr/sixcode//timer.o
                                                  /opt/local/avr/sixcode//rprintf.o
                                                  /opt/local/avr/sixcode//buffer.o
__udivmodsi4                                      /opt/local/lib/gcc/avr/4.0.2/avr5/libgcc.a(_udivmodsi4.o)
                                                  /opt/local/lib/gcc/avr/4.0.2/../../../../avr/lib/avr5/libc.a(vfprintf_std.o)
                                                  /opt/local/lib/gcc/avr/4.0.2/avr5/libgcc.a(_divmodsi4.o)
                                                  gpstest.o
                                                  /opt/local/avr/sixcode//lcd.o
                                                  /opt/local/avr/sixcode//timer.o
                                                  /opt/local/avr/sixcode//rprintf.o
                                                  /opt/local/avr/sixcode//uart.o
__vector_1                                        /opt/local/lib/gcc/avr/4.0.2/../../../../avr/lib/avr5/crtm32.o
__vector_10                                       /opt/local/avr/sixcode//timer.o
                                                  /opt/local/lib/gcc/avr/4.0.2/../../../../avr/lib/avr5/crtm32.o
__vector_11                                       /opt/local/avr/sixcode//timer.o
                                                  /opt/local/lib/gcc/avr/4.0.2/../../../../avr/lib/avr5/crtm32.o
__vector_12                                       /opt/local/lib/gcc/avr/4.0.2/../../../../avr/lib/avr5/crtm32.o
__vector_13                                       /opt/local/avr/sixcode//uart.o
                                                  /opt/local/lib/gcc/avr/4.0.2/../../../../avr/lib/avr5/crtm32.o
__vector_14                                       /opt/local/lib/gcc/avr/4.0.2/../../../../avr/lib/avr5/crtm32.o
__vector_15                                       /opt/local/avr/sixcode//uart.o
                                                  /opt/local/lib/gcc/avr/4.0.2/../../../../avr/lib/avr5/crtm32.o
__vector_16                                       /opt/local/lib/gcc/avr/4.0.2/../../../../avr/lib/avr5/crtm32.o
__vector_17                                       /opt/local/lib/gcc/avr/4.0.2/../../../../avr/lib/avr5/crtm32.o
__vector_18                                       /opt/local/lib/gcc/avr/4.0.2/../../../../avr/lib/avr5/crtm32.o
__vector_19                                       /opt/local/avr/sixcode//i2c.o
                                                  /opt/local/lib/gcc/avr/4.0.2/../../../../avr/lib/avr5/crtm32.o
__vector_2                                        /opt/local/lib/gcc/avr/4.0.2/../../../../avr/lib/avr5/crtm32.o
__vector_20                                       /opt/local/lib/gcc/avr/4.0.2/../../../../avr/lib/avr5/crtm32.o
__vector_3                                        /opt/local/lib/gcc/avr/4.0.2/../../../../avr/lib/avr5/crtm32.o
__vector_4                                        /opt/local/avr/sixcode//timer.o
                                                  /opt/local/lib/gcc/avr/4.0.2/../../../../avr/lib/avr5/crtm32.o
__vector_5                                        /opt/local/avr/sixcode//timer.o
                                                  /opt/local/lib/gcc/avr/4.0.2/../../../../avr/lib/avr5/crtm32.o
__vector_6                                        /opt/local/avr/sixcode//timer.o
                                                  /opt/local/lib/gcc/avr/4.0.2/../../../../avr/lib/avr5/crtm32.o
__vector_7                                        /opt/local/avr/sixcode//timer.o
                                                  /opt/local/lib/gcc/avr/4.0.2/../../../../avr/lib/avr5/crtm32.o
__vector_8                                        /opt/local/avr/sixcode//timer.o
                                                  /opt/local/lib/gcc/avr/4.0.2/../../../../avr/lib/avr5/crtm32.o
__vector_9                                        /opt/local/avr/sixcode//timer.o
                                                  /opt/local/lib/gcc/avr/4.0.2/../../../../avr/lib/avr5/crtm32.o
__vector_default                                  /opt/local/lib/gcc/avr/4.0.2/../../../../avr/lib/avr5/crtm32.o
__vectors                                         /opt/local/lib/gcc/avr/4.0.2/../../../../avr/lib/avr5/crtm32.o
_div                                              /opt/local/lib/gcc/avr/4.0.2/avr5/libgcc.a(_divmodhi4.o)
addToBuffer                                       gpstest.o
atan                                              /opt/local/lib/gcc/avr/4.0.2/../../../../avr/lib/avr5/libm.a(atan.o)
                                                  /opt/local/lib/gcc/avr/4.0.2/../../../../avr/lib/avr5/libm.a(atan2.o)
atan2                                             /opt/local/lib/gcc/avr/4.0.2/../../../../avr/lib/avr5/libm.a(atan2.o)
                                                  gpstest.o
atof                                              /opt/local/lib/gcc/avr/4.0.2/../../../../avr/lib/avr5/libm.a(strtod.o)
                                                  gpstest.o
atoi                                              /opt/local/lib/gcc/avr/4.0.2/../../../../avr/lib/avr5/libc.a(atoi.o)
                                                  gpstest.o
bearing                                           gpstest.o
bufferAddToEnd                                    /opt/local/avr/sixcode//buffer.o
                                                  gpstest.o
                                                  /opt/local/avr/sixcode//uart.o
bufferDumpFromFront                               /opt/local/avr/sixcode//buffer.o
bufferFlush                                       /opt/local/avr/sixcode//buffer.o
                                                  gpstest.o
bufferGetAtIndex                                  /opt/local/avr/sixcode//buffer.o
bufferGetFromFront                                /opt/local/avr/sixcode//buffer.o
                                                  gpstest.o
                                                  /opt/local/avr/sixcode//uart.o
bufferInit                                        /opt/local/avr/sixcode//buffer.o
                                                  gpstest.o
                                                  /opt/local/avr/sixcode//uart.o
bufferIsNotFull                                   /opt/local/avr/sixcode//buffer.o
cos                                               /opt/local/lib/gcc/avr/4.0.2/../../../../avr/lib/avr5/libm.a(cos.o)
                                                  gpstest.o
delay_us                                          /opt/local/avr/sixcode//timer.o
                                                  /opt/local/avr/sixcode//lcd.o
dist                                              gpstest.o
fmod                                              /opt/local/lib/gcc/avr/4.0.2/../../../../avr/lib/avr5/libm.a(fmod.o)
                                                  /opt/local/lib/gcc/avr/4.0.2/../../../../avr/lib/avr5/libm.a(sin.o)
                                                  /opt/local/lib/gcc/avr/4.0.2/../../../../avr/lib/avr5/libm.a(cos.o)
fputc                                             /opt/local/lib/gcc/avr/4.0.2/../../../../avr/lib/avr5/libc.a(fputc.o)
                                                  /opt/local/lib/gcc/avr/4.0.2/../../../../avr/lib/avr5/libc.a(vfprintf_std.o)
getCompass                                        gpstest.o
i2cGetReceivedByte                                /opt/local/avr/sixcode//i2c.o
i2cGetState                                       /opt/local/avr/sixcode//i2c.o
i2cGetStatus                                      /opt/local/avr/sixcode//i2c.o
i2cInit                                           /opt/local/avr/sixcode//i2c.o
                                                  gpstest.o
i2cMasterReceive                                  /opt/local/avr/sixcode//i2c.o
i2cMasterReceiveNI                                /opt/local/avr/sixcode//i2c.o
i2cMasterSend                                     /opt/local/avr/sixcode//i2c.o
i2cMasterSendNI                                   /opt/local/avr/sixcode//i2c.o
i2cReceiveByte                                    /opt/local/avr/sixcode//i2c.o
i2cSendByte                                       /opt/local/avr/sixcode//i2c.o
i2cSendStart                                      /opt/local/avr/sixcode//i2c.o
i2cSendStop                                       /opt/local/avr/sixcode//i2c.o
i2cSetBitrate                                     /opt/local/avr/sixcode//i2c.o
i2cSetLocalDeviceAddr                             /opt/local/avr/sixcode//i2c.o
                                                  gpstest.o
i2cSetSlaveReceiveHandler                         /opt/local/avr/sixcode//i2c.o
                                                  gpstest.o
i2cSetSlaveTransmitHandler                        /opt/local/avr/sixcode//i2c.o
                                                  gpstest.o
i2cSlaveReceiveService                            gpstest.o
i2cSlaveTransmitService                           gpstest.o
i2cWaitForComplete                                /opt/local/avr/sixcode//i2c.o
initVideo                                         video.o
initVoiceBox                                      gpstest.o
isalnum                                           /opt/local/lib/gcc/avr/4.0.2/../../../../avr/lib/avr5/libc.a(isalnum.o)
                                                  gpstest.o
isalpha                                           /opt/local/lib/gcc/avr/4.0.2/../../../../avr/lib/avr5/libc.a(isalpha.o)
                                                  /opt/local/lib/gcc/avr/4.0.2/../../../../avr/lib/avr5/libc.a(isalnum.o)
isdigit                                           /opt/local/lib/gcc/avr/4.0.2/../../../../avr/lib/avr5/libc.a(isdigit.o)
                                                  /opt/local/lib/gcc/avr/4.0.2/../../../../avr/lib/avr5/libc.a(isxdigit.o)
                                                  /opt/local/lib/gcc/avr/4.0.2/../../../../avr/lib/avr5/libc.a(isalnum.o)
islower                                           /opt/local/lib/gcc/avr/4.0.2/../../../../avr/lib/avr5/libc.a(isalpha.o)
isupper                                           /opt/local/lib/gcc/avr/4.0.2/../../../../avr/lib/avr5/libc.a(isalpha.o)
isxdigit                                          /opt/local/lib/gcc/avr/4.0.2/../../../../avr/lib/avr5/libc.a(isxdigit.o)
                                                  gpstest.o
lcdBusyWait                                       /opt/local/avr/sixcode//lcd.o
lcdClear                                          /opt/local/avr/sixcode//lcd.o
lcdControlRead                                    /opt/local/avr/sixcode//lcd.o
lcdControlWrite                                   /opt/local/avr/sixcode//lcd.o
lcdDataRead                                       /opt/local/avr/sixcode//lcd.o
lcdDataWrite                                      /opt/local/avr/sixcode//lcd.o
lcdGotoXY                                         /opt/local/avr/sixcode//lcd.o
lcdHome                                           /opt/local/avr/sixcode//lcd.o
lcdInit                                           /opt/local/avr/sixcode//lcd.o
lcdInitHW                                         /opt/local/avr/sixcode//lcd.o
lcdLoadCustomChar                                 /opt/local/avr/sixcode//lcd.o
lcdPrintData                                      /opt/local/avr/sixcode//lcd.o
lcdProgressBar                                    /opt/local/avr/sixcode//lcd.o
ldexp                                             /opt/local/lib/gcc/avr/4.0.2/../../../../avr/lib/avr5/libm.a(ldexp.o)
                                                  /opt/local/lib/gcc/avr/4.0.2/../../../../avr/lib/avr5/libm.a(sqrt.o)
localBuffer                                       gpstest.o
localBufferLength                                 gpstest.o
main                                              gpstest.o
                                                  /opt/local/lib/gcc/avr/4.0.2/../../../../avr/lib/avr5/crtm32.o
message_sent                                      gpstest.o
modf                                              /opt/local/lib/gcc/avr/4.0.2/../../../../avr/lib/avr5/libm.a(modf.o)
                                                  /opt/local/lib/gcc/avr/4.0.2/../../../../avr/lib/avr5/libm.a(fmod.o)
nmeap_addParser                                   gpstest.o
nmeap_altitude                                    gpstest.o
nmeap_gpgga                                       gpstest.o
nmeap_gprmc                                       gpstest.o
nmeap_init                                        gpstest.o
nmeap_latitude                                    gpstest.o
nmeap_longitude                                   gpstest.o
nmeap_parse                                       gpstest.o
nmeap_parseBuffer                                 gpstest.o
nmeap_process                                     gpstest.o
nmeap_tokenize                                    gpstest.o
print_to_string                                   gpstest.o
printf                                            /opt/local/lib/gcc/avr/4.0.2/../../../../avr/lib/avr5/libc.a(printf.o)
                                                  gpstest.o
rprintf1RamRom                                    /opt/local/avr/sixcode//rprintf.o
                                                  gpstest.o
                                                  video.o
rprintfCRLF                                       /opt/local/avr/sixcode//rprintf.o
                                                  gpstest.o
rprintfChar                                       /opt/local/avr/sixcode//rprintf.o
                                                  gpstest.o
rprintfFloat                                      /opt/local/avr/sixcode//rprintf.o
                                                  gpstest.o
rprintfInit                                       /opt/local/avr/sixcode//rprintf.o
                                                  gpstest.o
rprintfNum                                        /opt/local/avr/sixcode//rprintf.o
rprintfProgStr                                    /opt/local/avr/sixcode//rprintf.o
rprintfStr                                        /opt/local/avr/sixcode//rprintf.o
                                                  gpstest.o
rprintfStrLen                                     /opt/local/avr/sixcode//rprintf.o
rprintfu04                                        /opt/local/avr/sixcode//rprintf.o
rprintfu08                                        /opt/local/avr/sixcode//rprintf.o
                                                  gpstest.o
rprintfu16                                        /opt/local/avr/sixcode//rprintf.o
rprintfu32                                        /opt/local/avr/sixcode//rprintf.o
sendTextMessage                                   gpstest.o
setCompassBaud                                    gpstest.o
sin                                               /opt/local/lib/gcc/avr/4.0.2/../../../../avr/lib/avr5/libm.a(sin.o)
                                                  gpstest.o
sqrt                                              /opt/local/lib/gcc/avr/4.0.2/../../../../avr/lib/avr5/libm.a(sqrt.o)
                                                  gpstest.o
square                                            /opt/local/lib/gcc/avr/4.0.2/../../../../avr/lib/avr5/libm.a(square.o)
                                                  /opt/local/lib/gcc/avr/4.0.2/../../../../avr/lib/avr5/libm.a(atan.o)
                                                  /opt/local/lib/gcc/avr/4.0.2/../../../../avr/lib/avr5/libm.a(fp_cosinus.o)
stackem                                           gpstest.o
stackem_pointer                                   gpstest.o
strlen_P                                          /opt/local/lib/gcc/avr/4.0.2/../../../../avr/lib/avr5/libc.a(strlen_P.o)
                                                  /opt/local/lib/gcc/avr/4.0.2/../../../../avr/lib/avr5/libc.a(vfprintf_std.o)
strncmp                                           /opt/local/lib/gcc/avr/4.0.2/../../../../avr/lib/avr5/libc.a(strncmp.o)
                                                  gpstest.o
strncpy                                           /opt/local/lib/gcc/avr/4.0.2/../../../../avr/lib/avr5/libc.a(strncpy.o)
                                                  gpstest.o
strnlen                                           /opt/local/lib/gcc/avr/4.0.2/../../../../avr/lib/avr5/libc.a(strnlen.o)
                                                  /opt/local/lib/gcc/avr/4.0.2/../../../../avr/lib/avr5/libc.a(vfprintf_std.o)
strnlen_P                                         /opt/local/lib/gcc/avr/4.0.2/../../../../avr/lib/avr5/libc.a(strnlen_P.o)
                                                  /opt/local/lib/gcc/avr/4.0.2/../../../../avr/lib/avr5/libc.a(vfprintf_std.o)
strtod                                            /opt/local/lib/gcc/avr/4.0.2/../../../../avr/lib/avr5/libm.a(strtod.o)
timer0ClearOverflowCount                          /opt/local/avr/sixcode//timer.o
timer0GetOverflowCount                            /opt/local/avr/sixcode//timer.o
timer0GetPrescaler                                /opt/local/avr/sixcode//timer.o
timer0Init                                        /opt/local/avr/sixcode//timer.o
timer0SetPrescaler                                /opt/local/avr/sixcode//timer.o
timer1GetPrescaler                                /opt/local/avr/sixcode//timer.o
timer1Init                                        /opt/local/avr/sixcode//timer.o
timer1PWMAOff                                     /opt/local/avr/sixcode//timer.o
timer1PWMAOn                                      /opt/local/avr/sixcode//timer.o
timer1PWMASet                                     /opt/local/avr/sixcode//timer.o
timer1PWMBOff                                     /opt/local/avr/sixcode//timer.o
timer1PWMBOn                                      /opt/local/avr/sixcode//timer.o
timer1PWMBSet                                     /opt/local/avr/sixcode//timer.o
timer1PWMInit                                     /opt/local/avr/sixcode//timer.o
timer1PWMInitICR                                  /opt/local/avr/sixcode//timer.o
timer1PWMOff                                      /opt/local/avr/sixcode//timer.o
timer1SetPrescaler                                /opt/local/avr/sixcode//timer.o
                                                  gpstest.o
timer2ClearOverflowCount                          /opt/local/avr/sixcode//timer.o
timer2GetOverflowCount                            /opt/local/avr/sixcode//timer.o
timer2GetPrescaler                                /opt/local/avr/sixcode//timer.o
timer2Init                                        /opt/local/avr/sixcode//timer.o
timer2SetPrescaler                                /opt/local/avr/sixcode//timer.o
timerAttach                                       /opt/local/avr/sixcode//timer.o
                                                  gpstest.o
timerDetach                                       /opt/local/avr/sixcode//timer.o
                                                  gpstest.o
timerInit                                         /opt/local/avr/sixcode//timer.o
                                                  gpstest.o
timerPause                                        /opt/local/avr/sixcode//timer.o
                                                  gpstest.o
uartAddToTxBuffer                                 /opt/local/avr/sixcode//uart.o
uartBufferedTx                                    /opt/local/avr/sixcode//uart.o
uartFlushReceiveBuffer                            /opt/local/avr/sixcode//uart.o
uartGetByte                                       /opt/local/avr/sixcode//uart.o
uartGetRxBuffer                                   /opt/local/avr/sixcode//uart.o
uartGetTxBuffer                                   /opt/local/avr/sixcode//uart.o
uartInit                                          /opt/local/avr/sixcode//uart.o
                                                  gpstest.o
uartInitBuffers                                   /opt/local/avr/sixcode//uart.o
uartReadyTx                                       /opt/local/avr/sixcode//uart.o
uartReceiveBufferIsEmpty                          /opt/local/avr/sixcode//uart.o
uartReceiveByte                                   /opt/local/avr/sixcode//uart.o
uartRxBuffer                                      /opt/local/avr/sixcode//uart.o
uartRxOverflow                                    /opt/local/avr/sixcode//uart.o
uartSendByte                                      /opt/local/avr/sixcode//uart.o
                                                  gpstest.o
uartSendTxBuffer                                  /opt/local/avr/sixcode//uart.o
uartSetBaudRate                                   /opt/local/avr/sixcode//uart.o
                                                  gpstest.o
uartSetRxHandler                                  /opt/local/avr/sixcode//uart.o
                                                  gpstest.o
uartTxBuffer                                      /opt/local/avr/sixcode//uart.o
uartswGetRxBuffer                                 gpstest.o
uartswInit                                        gpstest.o
uartswInitBuffers                                 gpstest.o
uartswOff                                         gpstest.o
uartswReceiveByte                                 gpstest.o
uartswRxBitService                                gpstest.o
uartswSendByte                                    gpstest.o
uartswSetBaudRate                                 gpstest.o
uartswTxBitService                                gpstest.o
vfprintf                                          /opt/local/lib/gcc/avr/4.0.2/../../../../avr/lib/avr5/libc.a(vfprintf_std.o)
                                                  /opt/local/lib/gcc/avr/4.0.2/../../../../avr/lib/avr5/libc.a(printf.o)
voiceBoxCue                                       gpstest.o
writeVideoScreen                                  video.o
